TMS320C2000 Assembler PC v16.9.6 Sun Jan 28 18:08:28 2018

Tools Copyright (c) 1996-2017 Texas Instruments Incorporated
C:\Users\Zulolo\AppData\Local\Temp\{7EDDBB07-3A94-4F89-8653-32F0EC9EC6F3} PAGE    1

       1              ;***************************************************************
       2              ;* TMS320C2000 C/C++ Codegen                    PC v16.9.6.LTS *
       3              ;* Date/Time created: Sun Jan 28 18:08:27 2018                 *
       4              ;***************************************************************
       5                      .compiler_opts --abi=coffabi --float_support=softlib --hll_source=on --mem_model:code=flat --mem_mode
       6                      .asg    XAR2, FP
       7              
       8              $C$DW$CU        .dwtag  DW_TAG_compile_unit
       9                      .dwattr $C$DW$CU, DW_AT_name("../src/user.c")
      10                      .dwattr $C$DW$CU, DW_AT_producer("TI TMS320C2000 C/C++ Codegen PC v16.9.6.LTS Copyright (c) 1996-2017
      11                      .dwattr $C$DW$CU, DW_AT_TI_version(0x01)
      12                      .dwattr $C$DW$CU, DW_AT_comp_dir("G:\code\c\ccs\remote_car\Flash")
      13              
      14              $C$DW$1 .dwtag  DW_TAG_subprogram
      15                      .dwattr $C$DW$1, DW_AT_name("CTRL_setGains")
      16                      .dwattr $C$DW$1, DW_AT_TI_symbol_name("_CTRL_setGains")
      17                      .dwattr $C$DW$1, DW_AT_declaration
      18                      .dwattr $C$DW$1, DW_AT_external
      19              $C$DW$2 .dwtag  DW_TAG_formal_parameter
      20                      .dwattr $C$DW$2, DW_AT_type(*$C$DW$T$87)
      21              
      22              $C$DW$3 .dwtag  DW_TAG_formal_parameter
      23                      .dwattr $C$DW$3, DW_AT_type(*$C$DW$T$84)
      24              
      25              $C$DW$4 .dwtag  DW_TAG_formal_parameter
      26                      .dwattr $C$DW$4, DW_AT_type(*$C$DW$T$93)
      27              
      28              $C$DW$5 .dwtag  DW_TAG_formal_parameter
      29                      .dwattr $C$DW$5, DW_AT_type(*$C$DW$T$93)
      30              
      31              $C$DW$6 .dwtag  DW_TAG_formal_parameter
      32                      .dwattr $C$DW$6, DW_AT_type(*$C$DW$T$93)
      33              
      34                      .dwendtag $C$DW$1
      35              
      36              
      37              $C$DW$7 .dwtag  DW_TAG_subprogram
      38                      .dwattr $C$DW$7, DW_AT_name("EST_setLs_q_pu")
      39                      .dwattr $C$DW$7, DW_AT_TI_symbol_name("_EST_setLs_q_pu")
      40                      .dwattr $C$DW$7, DW_AT_declaration
      41                      .dwattr $C$DW$7, DW_AT_external
      42              $C$DW$8 .dwtag  DW_TAG_formal_parameter
      43                      .dwattr $C$DW$8, DW_AT_type(*$C$DW$T$33)
      44              
      45              $C$DW$9 .dwtag  DW_TAG_formal_parameter
      46                      .dwattr $C$DW$9, DW_AT_type(*$C$DW$T$93)
      47              
      48                      .dwendtag $C$DW$7
      49              
      50              
      51              $C$DW$10        .dwtag  DW_TAG_subprogram
      52                      .dwattr $C$DW$10, DW_AT_name("EST_setLs_qFmt")
      53                      .dwattr $C$DW$10, DW_AT_TI_symbol_name("_EST_setLs_qFmt")
      54                      .dwattr $C$DW$10, DW_AT_declaration
      55                      .dwattr $C$DW$10, DW_AT_external
TMS320C2000 Assembler PC v16.9.6 Sun Jan 28 18:08:28 2018

Tools Copyright (c) 1996-2017 Texas Instruments Incorporated
C:\Users\Zulolo\AppData\Local\Temp\{7EDDBB07-3A94-4F89-8653-32F0EC9EC6F3} PAGE    2

      56              $C$DW$11        .dwtag  DW_TAG_formal_parameter
      57                      .dwattr $C$DW$11, DW_AT_type(*$C$DW$T$33)
      58              
      59              $C$DW$12        .dwtag  DW_TAG_formal_parameter
      60                      .dwattr $C$DW$12, DW_AT_type(*$C$DW$T$96)
      61              
      62                      .dwendtag $C$DW$10
      63              
      64              
      65              $C$DW$13        .dwtag  DW_TAG_subprogram
      66                      .dwattr $C$DW$13, DW_AT_name("EST_setLs_d_pu")
      67                      .dwattr $C$DW$13, DW_AT_TI_symbol_name("_EST_setLs_d_pu")
      68                      .dwattr $C$DW$13, DW_AT_declaration
      69                      .dwattr $C$DW$13, DW_AT_external
      70              $C$DW$14        .dwtag  DW_TAG_formal_parameter
      71                      .dwattr $C$DW$14, DW_AT_type(*$C$DW$T$33)
      72              
      73              $C$DW$15        .dwtag  DW_TAG_formal_parameter
      74                      .dwattr $C$DW$15, DW_AT_type(*$C$DW$T$93)
      75              
      76                      .dwendtag $C$DW$13
      77              
      78              
      79              $C$DW$16        .dwtag  DW_TAG_subprogram
      80                      .dwattr $C$DW$16, DW_AT_name("__IQmpy")
      81                      .dwattr $C$DW$16, DW_AT_TI_symbol_name("___IQmpy")
      82                      .dwattr $C$DW$16, DW_AT_type(*$C$DW$T$12)
      83                      .dwattr $C$DW$16, DW_AT_declaration
      84                      .dwattr $C$DW$16, DW_AT_external
      85              $C$DW$17        .dwtag  DW_TAG_formal_parameter
      86                      .dwattr $C$DW$17, DW_AT_type(*$C$DW$T$12)
      87              
      88              $C$DW$18        .dwtag  DW_TAG_formal_parameter
      89                      .dwattr $C$DW$18, DW_AT_type(*$C$DW$T$12)
      90              
      91              $C$DW$19        .dwtag  DW_TAG_formal_parameter
      92                      .dwattr $C$DW$19, DW_AT_type(*$C$DW$T$10)
      93              
      94                      .dwendtag $C$DW$16
      95              
      96              
      97              $C$DW$20        .dwtag  DW_TAG_subprogram
      98                      .dwattr $C$DW$20, DW_AT_name("pow")
      99                      .dwattr $C$DW$20, DW_AT_TI_symbol_name("_pow")
     100                      .dwattr $C$DW$20, DW_AT_type(*$C$DW$T$17)
     101                      .dwattr $C$DW$20, DW_AT_declaration
     102                      .dwattr $C$DW$20, DW_AT_external
     103              $C$DW$21        .dwtag  DW_TAG_formal_parameter
     104                      .dwattr $C$DW$21, DW_AT_type(*$C$DW$T$17)
     105              
     106              $C$DW$22        .dwtag  DW_TAG_formal_parameter
     107                      .dwattr $C$DW$22, DW_AT_type(*$C$DW$T$17)
     108              
     109                      .dwendtag $C$DW$20
     110              
TMS320C2000 Assembler PC v16.9.6 Sun Jan 28 18:08:28 2018

Tools Copyright (c) 1996-2017 Texas Instruments Incorporated
C:\Users\Zulolo\AppData\Local\Temp\{7EDDBB07-3A94-4F89-8653-32F0EC9EC6F3} PAGE    3

     111              
     112              $C$DW$23        .dwtag  DW_TAG_subprogram
     113                      .dwattr $C$DW$23, DW_AT_name("log")
     114                      .dwattr $C$DW$23, DW_AT_TI_symbol_name("_log")
     115                      .dwattr $C$DW$23, DW_AT_type(*$C$DW$T$17)
     116                      .dwattr $C$DW$23, DW_AT_declaration
     117                      .dwattr $C$DW$23, DW_AT_external
     118              $C$DW$24        .dwtag  DW_TAG_formal_parameter
     119                      .dwattr $C$DW$24, DW_AT_type(*$C$DW$T$17)
     120              
     121                      .dwendtag $C$DW$23
     122              
     123              
     124              $C$DW$25        .dwtag  DW_TAG_subprogram
     125                      .dwattr $C$DW$25, DW_AT_name("EST_getLs_d_H")
     126                      .dwattr $C$DW$25, DW_AT_TI_symbol_name("_EST_getLs_d_H")
     127                      .dwattr $C$DW$25, DW_AT_type(*$C$DW$T$54)
     128                      .dwattr $C$DW$25, DW_AT_declaration
     129                      .dwattr $C$DW$25, DW_AT_external
     130              $C$DW$26        .dwtag  DW_TAG_formal_parameter
     131                      .dwattr $C$DW$26, DW_AT_type(*$C$DW$T$33)
     132              
     133                      .dwendtag $C$DW$25
     134              
     135              
     136              $C$DW$27        .dwtag  DW_TAG_subprogram
     137                      .dwattr $C$DW$27, DW_AT_name("EST_getLs_d_pu")
     138                      .dwattr $C$DW$27, DW_AT_TI_symbol_name("_EST_getLs_d_pu")
     139                      .dwattr $C$DW$27, DW_AT_type(*$C$DW$T$20)
     140                      .dwattr $C$DW$27, DW_AT_declaration
     141                      .dwattr $C$DW$27, DW_AT_external
     142              $C$DW$28        .dwtag  DW_TAG_formal_parameter
     143                      .dwattr $C$DW$28, DW_AT_type(*$C$DW$T$33)
     144              
     145                      .dwendtag $C$DW$27
     146              
     147              
     148              $C$DW$29        .dwtag  DW_TAG_subprogram
     149                      .dwattr $C$DW$29, DW_AT_name("EST_getLs_q_pu")
     150                      .dwattr $C$DW$29, DW_AT_TI_symbol_name("_EST_getLs_q_pu")
     151                      .dwattr $C$DW$29, DW_AT_type(*$C$DW$T$20)
     152                      .dwattr $C$DW$29, DW_AT_declaration
     153                      .dwattr $C$DW$29, DW_AT_external
     154              $C$DW$30        .dwtag  DW_TAG_formal_parameter
     155                      .dwattr $C$DW$30, DW_AT_type(*$C$DW$T$33)
     156              
     157                      .dwendtag $C$DW$29
     158              
     159              
     160              $C$DW$31        .dwtag  DW_TAG_subprogram
     161                      .dwattr $C$DW$31, DW_AT_name("EST_getLs_q_H")
     162                      .dwattr $C$DW$31, DW_AT_TI_symbol_name("_EST_getLs_q_H")
     163                      .dwattr $C$DW$31, DW_AT_type(*$C$DW$T$54)
     164                      .dwattr $C$DW$31, DW_AT_declaration
     165                      .dwattr $C$DW$31, DW_AT_external
TMS320C2000 Assembler PC v16.9.6 Sun Jan 28 18:08:28 2018

Tools Copyright (c) 1996-2017 Texas Instruments Incorporated
C:\Users\Zulolo\AppData\Local\Temp\{7EDDBB07-3A94-4F89-8653-32F0EC9EC6F3} PAGE    4

     166              $C$DW$32        .dwtag  DW_TAG_formal_parameter
     167                      .dwattr $C$DW$32, DW_AT_type(*$C$DW$T$33)
     168              
     169                      .dwendtag $C$DW$31
     170              
     171              
     172              $C$DW$33        .dwtag  DW_TAG_subprogram
     173                      .dwattr $C$DW$33, DW_AT_name("ceil")
     174                      .dwattr $C$DW$33, DW_AT_TI_symbol_name("_ceil")
     175                      .dwattr $C$DW$33, DW_AT_type(*$C$DW$T$17)
     176                      .dwattr $C$DW$33, DW_AT_declaration
     177                      .dwattr $C$DW$33, DW_AT_external
     178              $C$DW$34        .dwtag  DW_TAG_formal_parameter
     179                      .dwattr $C$DW$34, DW_AT_type(*$C$DW$T$17)
     180              
     181                      .dwendtag $C$DW$33
     182              
     183              
     184              $C$DW$35        .dwtag  DW_TAG_subprogram
     185                      .dwattr $C$DW$35, DW_AT_name("EST_getLs_coarse_max_pu")
     186                      .dwattr $C$DW$35, DW_AT_TI_symbol_name("_EST_getLs_coarse_max_pu")
     187                      .dwattr $C$DW$35, DW_AT_type(*$C$DW$T$20)
     188                      .dwattr $C$DW$35, DW_AT_declaration
     189                      .dwattr $C$DW$35, DW_AT_external
     190              $C$DW$36        .dwtag  DW_TAG_formal_parameter
     191                      .dwattr $C$DW$36, DW_AT_type(*$C$DW$T$33)
     192              
     193                      .dwendtag $C$DW$35
     194              
     195              
     196              $C$DW$37        .dwtag  DW_TAG_subprogram
     197                      .dwattr $C$DW$37, DW_AT_name("_IQ30toF")
     198                      .dwattr $C$DW$37, DW_AT_TI_symbol_name("__IQ30toF")
     199                      .dwattr $C$DW$37, DW_AT_type(*$C$DW$T$16)
     200                      .dwattr $C$DW$37, DW_AT_declaration
     201                      .dwattr $C$DW$37, DW_AT_external
     202              $C$DW$38        .dwtag  DW_TAG_formal_parameter
     203                      .dwattr $C$DW$38, DW_AT_type(*$C$DW$T$12)
     204              
     205                      .dwendtag $C$DW$37
     206              
     207              
     208              $C$DW$39        .dwtag  DW_TAG_subprogram
     209                      .dwattr $C$DW$39, DW_AT_name("EST_getFlux_pu")
     210                      .dwattr $C$DW$39, DW_AT_TI_symbol_name("_EST_getFlux_pu")
     211                      .dwattr $C$DW$39, DW_AT_type(*$C$DW$T$20)
     212                      .dwattr $C$DW$39, DW_AT_declaration
     213                      .dwattr $C$DW$39, DW_AT_external
     214              $C$DW$40        .dwtag  DW_TAG_formal_parameter
     215                      .dwattr $C$DW$40, DW_AT_type(*$C$DW$T$33)
     216              
     217                      .dwendtag $C$DW$39
     218              
     219              
     220              $C$DW$41        .dwtag  DW_TAG_subprogram
TMS320C2000 Assembler PC v16.9.6 Sun Jan 28 18:08:28 2018

Tools Copyright (c) 1996-2017 Texas Instruments Incorporated
C:\Users\Zulolo\AppData\Local\Temp\{7EDDBB07-3A94-4F89-8653-32F0EC9EC6F3} PAGE    5

     221                      .dwattr $C$DW$41, DW_AT_name("EST_getRs_Ohm")
     222                      .dwattr $C$DW$41, DW_AT_TI_symbol_name("_EST_getRs_Ohm")
     223                      .dwattr $C$DW$41, DW_AT_type(*$C$DW$T$54)
     224                      .dwattr $C$DW$41, DW_AT_declaration
     225                      .dwattr $C$DW$41, DW_AT_external
     226              $C$DW$42        .dwtag  DW_TAG_formal_parameter
     227                      .dwattr $C$DW$42, DW_AT_type(*$C$DW$T$33)
     228              
     229                      .dwendtag $C$DW$41
     230              
     231              ;       D:\ti\ccsv7\tools\compiler\ti-cgt-c2000_16.9.6.LTS\bin\opt2000.exe C:\\Users\\Zulolo\\AppData\\Local\
     232              ;       D:\ti\ccsv7\tools\compiler\ti-cgt-c2000_16.9.6.LTS\bin\ac2000.exe -@C:\\Users\\Zulolo\\AppData\\Local
     233 00000000               .sect   ".text"
     234                      .clink
     235                      .global _USER_softwareUpdate1p6
     236              
     237              $C$DW$43        .dwtag  DW_TAG_subprogram
     238                      .dwattr $C$DW$43, DW_AT_name("USER_softwareUpdate1p6")
     239                      .dwattr $C$DW$43, DW_AT_low_pc(_USER_softwareUpdate1p6)
     240                      .dwattr $C$DW$43, DW_AT_high_pc(0x00)
     241                      .dwattr $C$DW$43, DW_AT_TI_symbol_name("_USER_softwareUpdate1p6")
     242                      .dwattr $C$DW$43, DW_AT_external
     243                      .dwattr $C$DW$43, DW_AT_TI_begin_file("../src/user.c")
     244                      .dwattr $C$DW$43, DW_AT_TI_begin_line(0x343)
     245                      .dwattr $C$DW$43, DW_AT_TI_begin_column(0x06)
     246                      .dwattr $C$DW$43, DW_AT_TI_max_frame_size(-20)
     247                      .dwpsn  file "../src/user.c",line 836,column 1,is_stmt,address _USER_softwareUpdate1p6,isa 0
     248              
     249                      .dwfde $C$DW$CIE, _USER_softwareUpdate1p6
     250              $C$DW$44        .dwtag  DW_TAG_formal_parameter
     251                      .dwattr $C$DW$44, DW_AT_name("handle")
     252                      .dwattr $C$DW$44, DW_AT_TI_symbol_name("_handle")
     253                      .dwattr $C$DW$44, DW_AT_type(*$C$DW$T$87)
     254                      .dwattr $C$DW$44, DW_AT_location[DW_OP_reg12]
     255              
     256              
     257              ;***************************************************************
     258              ;* FNAME: _USER_softwareUpdate1p6       FR SIZE:  18           *
     259              ;*                                                             *
     260              ;* FUNCTION ENVIRONMENT                                        *
     261              ;*                                                             *
     262              ;* FUNCTION PROPERTIES                                         *
     263              ;*                            2 Parameter,  9 Auto,  6 SOE     *
     264              ;***************************************************************
     265              
     266              _USER_softwareUpdate1p6:
     267              ;* AR3   assigned to _handle
     268              $C$DW$45        .dwtag  DW_TAG_variable
     269                      .dwattr $C$DW$45, DW_AT_name("handle")
     270                      .dwattr $C$DW$45, DW_AT_TI_symbol_name("_handle")
     271                      .dwattr $C$DW$45, DW_AT_type(*$C$DW$T$88)
     272                      .dwattr $C$DW$45, DW_AT_location[DW_OP_reg10]
     273              
     274              ;* AR6   assigned to _Ls_coarse_max
     275              $C$DW$46        .dwtag  DW_TAG_variable
TMS320C2000 Assembler PC v16.9.6 Sun Jan 28 18:08:28 2018

Tools Copyright (c) 1996-2017 Texas Instruments Incorporated
C:\Users\Zulolo\AppData\Local\Temp\{7EDDBB07-3A94-4F89-8653-32F0EC9EC6F3} PAGE    6

     276                      .dwattr $C$DW$46, DW_AT_name("Ls_coarse_max")
     277                      .dwattr $C$DW$46, DW_AT_TI_symbol_name("_Ls_coarse_max")
     278                      .dwattr $C$DW$46, DW_AT_type(*$C$DW$T$54)
     279                      .dwattr $C$DW$46, DW_AT_location[DW_OP_reg16]
     280              
     281              $C$DW$47        .dwtag  DW_TAG_variable
     282                      .dwattr $C$DW$47, DW_AT_name("lShift")
     283                      .dwattr $C$DW$47, DW_AT_TI_symbol_name("_lShift")
     284                      .dwattr $C$DW$47, DW_AT_type(*$C$DW$T$107)
     285                      .dwattr $C$DW$47, DW_AT_location[DW_OP_breg20 -11]
     286              
     287              ;* AR1   assigned to _L_max
     288              $C$DW$48        .dwtag  DW_TAG_variable
     289                      .dwattr $C$DW$48, DW_AT_name("L_max")
     290                      .dwattr $C$DW$48, DW_AT_TI_symbol_name("_L_max")
     291                      .dwattr $C$DW$48, DW_AT_type(*$C$DW$T$54)
     292                      .dwattr $C$DW$48, DW_AT_location[DW_OP_reg6]
     293              
     294              ;* AR2   assigned to _Ls_q_pu
     295              $C$DW$49        .dwtag  DW_TAG_variable
     296                      .dwattr $C$DW$49, DW_AT_name("Ls_q_pu")
     297                      .dwattr $C$DW$49, DW_AT_TI_symbol_name("_Ls_q_pu")
     298                      .dwattr $C$DW$49, DW_AT_type(*$C$DW$T$20)
     299                      .dwattr $C$DW$49, DW_AT_location[DW_OP_reg8]
     300              
     301                      .dwcfi  cfa_offset, -2
     302                      .dwcfi  save_reg_to_mem, 26, 0
     303 00000000 B2BD          MOVL      *SP++,XAR1            ; [CPU_] 
     304                      .dwcfi  save_reg_to_mem, 7, 2
     305                      .dwcfi  cfa_offset, -4
     306 00000001 AABD          MOVL      *SP++,XAR2            ; [CPU_] 
     307                      .dwcfi  save_reg_to_mem, 9, 4
     308                      .dwcfi  cfa_offset, -6
     309 00000002 A2BD          MOVL      *SP++,XAR3            ; [CPU_] 
     310                      .dwcfi  save_reg_to_mem, 11, 6
     311                      .dwcfi  cfa_offset, -8
     312 00000003 FE0C          ADDB      SP,#12                ; [CPU_U] 
     313                      .dwcfi  cfa_offset, -20
     314 00000004 82A4          MOVL      XAR3,XAR4             ; [CPU_] |836| 
     315                      .dwpsn  file "../src/user.c",line 839,column 25,is_stmt,isa 0
     316 00000005 D018          MOVB      XAR0,#24              ; [CPU_] |839| 
     317 00000006 8A93          MOVL      XAR4,*+XAR3[AR0]      ; [CPU_] |839| 
     318              $C$DW$50        .dwtag  DW_TAG_TI_branch
     319                      .dwattr $C$DW$50, DW_AT_low_pc(0x00)
     320                      .dwattr $C$DW$50, DW_AT_name("_EST_getLs_coarse_max_pu")
     321                      .dwattr $C$DW$50, DW_AT_TI_call
     322              
     323 00000007 7640!         LCR       #_EST_getLs_coarse_max_pu ; [CPU_] |839| 
         00000008 0000 
     324                      ; call occurs [#_EST_getLs_coarse_max_pu] ; [] |839| 
     325              $C$DW$51        .dwtag  DW_TAG_TI_branch
     326                      .dwattr $C$DW$51, DW_AT_low_pc(0x00)
     327                      .dwattr $C$DW$51, DW_AT_name("__IQ30toF")
     328                      .dwattr $C$DW$51, DW_AT_TI_call
     329              
TMS320C2000 Assembler PC v16.9.6 Sun Jan 28 18:08:28 2018

Tools Copyright (c) 1996-2017 Texas Instruments Incorporated
C:\Users\Zulolo\AppData\Local\Temp\{7EDDBB07-3A94-4F89-8653-32F0EC9EC6F3} PAGE    7

     330 00000009 7640!         LCR       #__IQ30toF            ; [CPU_] |839| 
         0000000a 0000 
     331                      ; call occurs [#__IQ30toF] ; [] |839| 
     332 0000000b 1EA6          MOVL      XAR6,ACC              ; [CPU_] |839| 
     333                      .dwpsn  file "../src/user.c",line 840,column 23,is_stmt,isa 0
     334 0000000c 28A9          MOV       AL,#8556              ; [CPU_] |840| 
         0000000d 216C 
     335 0000000e 28A8          MOV       AH,#14834             ; [CPU_] |840| 
         0000000f 39F2 
     336 00000010 1E42          MOVL      *-SP[2],ACC           ; [CPU_] |840| 
     337 00000011 06A6          MOVL      ACC,XAR6              ; [CPU_] |840| 
     338              $C$DW$52        .dwtag  DW_TAG_TI_branch
     339                      .dwattr $C$DW$52, DW_AT_low_pc(0x00)
     340                      .dwattr $C$DW$52, DW_AT_name("FS$$MPY")
     341                      .dwattr $C$DW$52, DW_AT_TI_call
     342              
     343 00000012 7640!         LCR       #FS$$MPY              ; [CPU_] |840| 
         00000013 0000 
     344                      ; call occurs [#FS$$MPY] ; [] |840| 
     345 00000014 D088          MOVB      XAR0,#136             ; [CPU_] |840| 
     346 00000015 1E42          MOVL      *-SP[2],ACC           ; [CPU_] |840| 
     347 00000016 0693          MOVL      ACC,*+XAR3[AR0]       ; [CPU_] |840| 
     348              $C$DW$53        .dwtag  DW_TAG_TI_branch
     349                      .dwattr $C$DW$53, DW_AT_low_pc(0x00)
     350                      .dwattr $C$DW$53, DW_AT_name("FS$$DIV")
     351                      .dwattr $C$DW$53, DW_AT_TI_call
     352              
     353 00000017 7640!         LCR       #FS$$DIV              ; [CPU_] |840| 
         00000018 0000 
     354                      ; call occurs [#FS$$DIV] ; [] |840| 
     355              $C$DW$54        .dwtag  DW_TAG_TI_branch
     356                      .dwattr $C$DW$54, DW_AT_low_pc(0x00)
     357                      .dwattr $C$DW$54, DW_AT_name("_log")
     358                      .dwattr $C$DW$54, DW_AT_TI_call
     359              
     360 00000019 7640!         LCR       #_log                 ; [CPU_] |840| 
         0000001a 0000 
     361                      ; call occurs [#_log] ; [] |840| 
     362 0000001b 8BA9          MOVL      XAR1,ACC              ; [CPU_] |840| 
     363 0000001c 9A00          MOV       AL,#0                 ; [CPU_] |840| 
     364 0000001d 28A8          MOV       AH,#16384             ; [CPU_] |840| 
         0000001e 4000 
     365              $C$DW$55        .dwtag  DW_TAG_TI_branch
     366                      .dwattr $C$DW$55, DW_AT_low_pc(0x00)
     367                      .dwattr $C$DW$55, DW_AT_name("_log")
     368                      .dwattr $C$DW$55, DW_AT_TI_call
     369              
     370 0000001f 7640!         LCR       #_log                 ; [CPU_] |840| 
         00000020 0000 
     371                      ; call occurs [#_log] ; [] |840| 
     372 00000021 1E42          MOVL      *-SP[2],ACC           ; [CPU_] |840| 
     373 00000022 B2A9          MOVL      ACC,XAR1              ; [CPU_] |840| 
     374              $C$DW$56        .dwtag  DW_TAG_TI_branch
     375                      .dwattr $C$DW$56, DW_AT_low_pc(0x00)
     376                      .dwattr $C$DW$56, DW_AT_name("FS$$DIV")
TMS320C2000 Assembler PC v16.9.6 Sun Jan 28 18:08:28 2018

Tools Copyright (c) 1996-2017 Texas Instruments Incorporated
C:\Users\Zulolo\AppData\Local\Temp\{7EDDBB07-3A94-4F89-8653-32F0EC9EC6F3} PAGE    8

     377                      .dwattr $C$DW$56, DW_AT_TI_call
     378              
     379 00000023 7640!         LCR       #FS$$DIV              ; [CPU_] |840| 
         00000024 0000 
     380                      ; call occurs [#FS$$DIV] ; [] |840| 
     381              $C$DW$57        .dwtag  DW_TAG_TI_branch
     382                      .dwattr $C$DW$57, DW_AT_low_pc(0x00)
     383                      .dwattr $C$DW$57, DW_AT_name("_ceil")
     384                      .dwattr $C$DW$57, DW_AT_TI_call
     385              
     386 00000025 7640!         LCR       #_ceil                ; [CPU_] |840| 
         00000026 0000 
     387                      ; call occurs [#_ceil] ; [] |840| 
     388              $C$DW$58        .dwtag  DW_TAG_TI_branch
     389                      .dwattr $C$DW$58, DW_AT_low_pc(0x00)
     390                      .dwattr $C$DW$58, DW_AT_name("FS$$TOI")
     391                      .dwattr $C$DW$58, DW_AT_TI_call
     392              
     393 00000027 7640!         LCR       #FS$$TOI              ; [CPU_] |840| 
         00000028 0000 
     394                      ; call occurs [#FS$$TOI] ; [] |840| 
     395 00000029 964B          MOV       *-SP[11],AL           ; [CPU_] |840| 
     396                      .dwpsn  file "../src/user.c",line 842,column 17,is_stmt,isa 0
     397              $C$DW$59        .dwtag  DW_TAG_TI_branch
     398                      .dwattr $C$DW$59, DW_AT_low_pc(0x00)
     399                      .dwattr $C$DW$59, DW_AT_name("I$$TOFS")
     400                      .dwattr $C$DW$59, DW_AT_TI_call
     401              
     402 0000002a 7640!         LCR       #I$$TOFS              ; [CPU_] |842| 
         0000002b 0000 
     403                      ; call occurs [#I$$TOFS] ; [] |842| 
     404 0000002c 1E42          MOVL      *-SP[2],ACC           ; [CPU_] |842| 
     405 0000002d 9A00          MOV       AL,#0                 ; [CPU_] |842| 
     406 0000002e 28A8          MOV       AH,#16384             ; [CPU_] |842| 
         0000002f 4000 
     407              $C$DW$60        .dwtag  DW_TAG_TI_branch
     408                      .dwattr $C$DW$60, DW_AT_low_pc(0x00)
     409                      .dwattr $C$DW$60, DW_AT_name("_pow")
     410                      .dwattr $C$DW$60, DW_AT_TI_call
     411              
     412 00000030 7640!         LCR       #_pow                 ; [CPU_] |842| 
         00000031 0000 
     413                      ; call occurs [#_pow] ; [] |842| 
     414 00000032 1EA6          MOVL      XAR6,ACC              ; [CPU_] |842| 
     415 00000033 28A9          MOV       AL,#8556              ; [CPU_] |842| 
         00000034 216C 
     416 00000035 28A8          MOV       AH,#14834             ; [CPU_] |842| 
         00000036 39F2 
     417 00000037 1E42          MOVL      *-SP[2],ACC           ; [CPU_] |842| 
     418 00000038 06A6          MOVL      ACC,XAR6              ; [CPU_] |842| 
     419              $C$DW$61        .dwtag  DW_TAG_TI_branch
     420                      .dwattr $C$DW$61, DW_AT_low_pc(0x00)
     421                      .dwattr $C$DW$61, DW_AT_name("FS$$MPY")
     422                      .dwattr $C$DW$61, DW_AT_TI_call
     423              
TMS320C2000 Assembler PC v16.9.6 Sun Jan 28 18:08:28 2018

Tools Copyright (c) 1996-2017 Texas Instruments Incorporated
C:\Users\Zulolo\AppData\Local\Temp\{7EDDBB07-3A94-4F89-8653-32F0EC9EC6F3} PAGE    9

     424 00000039 7640!         LCR       #FS$$MPY              ; [CPU_] |842| 
         0000003a 0000 
     425                      ; call occurs [#FS$$MPY] ; [] |842| 
     426                      .dwpsn  file "../src/user.c",line 844,column 15,is_stmt,isa 0
     427 0000003b D08A          MOVB      XAR0,#138             ; [CPU_] |844| 
     428                      .dwpsn  file "../src/user.c",line 842,column 17,is_stmt,isa 0
     429 0000003c 8BA9          MOVL      XAR1,ACC              ; [CPU_] |842| 
     430                      .dwpsn  file "../src/user.c",line 844,column 15,is_stmt,isa 0
     431 0000003d 1E42          MOVL      *-SP[2],ACC           ; [CPU_] |844| 
     432 0000003e 0693          MOVL      ACC,*+XAR3[AR0]       ; [CPU_] |844| 
     433              $C$DW$62        .dwtag  DW_TAG_TI_branch
     434                      .dwattr $C$DW$62, DW_AT_low_pc(0x00)
     435                      .dwattr $C$DW$62, DW_AT_name("FS$$DIV")
     436                      .dwattr $C$DW$62, DW_AT_TI_call
     437              
     438 0000003f 7640!         LCR       #FS$$DIV              ; [CPU_] |844| 
         00000040 0000 
     439                      ; call occurs [#FS$$DIV] ; [] |844| 
     440 00000041 5CAD          MOVZ      AR4,SP                ; [CPU_] |844| 
     441 00000042 DC8A          SUBB      XAR4,#10              ; [CPU_U] |844| 
     442 00000043 88A4          MOVZ      AR6,AR4               ; [CPU_] |844| 
     443              $C$DW$63        .dwtag  DW_TAG_TI_branch
     444                      .dwattr $C$DW$63, DW_AT_low_pc(0x00)
     445                      .dwattr $C$DW$63, DW_AT_name("FS$$TOFD")
     446                      .dwattr $C$DW$63, DW_AT_TI_call
     447              
     448 00000044 7640!         LCR       #FS$$TOFD             ; [CPU_] |844| 
         00000045 0000 
     449                      ; call occurs [#FS$$TOFD] ; [] |844| 
     450 00000046 5DAD          MOVZ      AR5,SP                ; [CPU_] |844| 
     451 00000047 5CAD          MOVZ      AR4,SP                ; [CPU_] |844| 
     452 00000048 DD86          SUBB      XAR5,#6               ; [CPU_U] |844| 
     453 00000049 DC8A          SUBB      XAR4,#10              ; [CPU_U] |844| 
     454 0000004a 88A5          MOVZ      AR6,AR5               ; [CPU_] |844| 
     455 0000004b 5CA4          MOVZ      AR4,AR4               ; [CPU_] |844| 
     456 0000004c 8F40+         MOVL      XAR5,#$C$FL1          ; [CPU_U] |844| 
         0000004d 0000 
     457              $C$DW$64        .dwtag  DW_TAG_TI_branch
     458                      .dwattr $C$DW$64, DW_AT_low_pc(0x00)
     459                      .dwattr $C$DW$64, DW_AT_name("FD$$MPY")
     460                      .dwattr $C$DW$64, DW_AT_TI_call
     461              
     462 0000004e 7640!         LCR       #FD$$MPY              ; [CPU_] |844| 
         0000004f 0000 
     463                      ; call occurs [#FD$$MPY] ; [] |844| 
     464 00000050 5CAD          MOVZ      AR4,SP                ; [CPU_] |844| 
     465 00000051 DC86          SUBB      XAR4,#6               ; [CPU_U] |844| 
     466 00000052 5CA4          MOVZ      AR4,AR4               ; [CPU_] |844| 
     467              $C$DW$65        .dwtag  DW_TAG_TI_branch
     468                      .dwattr $C$DW$65, DW_AT_low_pc(0x00)
     469                      .dwattr $C$DW$65, DW_AT_name("FD$$TOL")
     470                      .dwattr $C$DW$65, DW_AT_TI_call
     471              
     472 00000053 7640!         LCR       #FD$$TOL              ; [CPU_] |844| 
         00000054 0000 
TMS320C2000 Assembler PC v16.9.6 Sun Jan 28 18:08:28 2018

Tools Copyright (c) 1996-2017 Texas Instruments Incorporated
C:\Users\Zulolo\AppData\Local\Temp\{7EDDBB07-3A94-4F89-8653-32F0EC9EC6F3} PAGE   10

     473                      ; call occurs [#FD$$TOL] ; [] |844| 
     474 00000055 86A9          MOVL      XAR2,ACC              ; [CPU_] |844| 
     475                      .dwpsn  file "../src/user.c",line 848,column 3,is_stmt,isa 0
     476 00000056 B242          MOVL      *-SP[2],XAR1          ; [CPU_] |848| 
     477 00000057 D088          MOVB      XAR0,#136             ; [CPU_] |848| 
     478 00000058 0693          MOVL      ACC,*+XAR3[AR0]       ; [CPU_] |848| 
     479              $C$DW$66        .dwtag  DW_TAG_TI_branch
     480                      .dwattr $C$DW$66, DW_AT_low_pc(0x00)
     481                      .dwattr $C$DW$66, DW_AT_name("FS$$DIV")
     482                      .dwattr $C$DW$66, DW_AT_TI_call
     483              
     484 00000059 7640!         LCR       #FS$$DIV              ; [CPU_] |848| 
         0000005a 0000 
     485                      ; call occurs [#FS$$DIV] ; [] |848| 
     486 0000005b 5CAD          MOVZ      AR4,SP                ; [CPU_] |848| 
     487 0000005c DC8A          SUBB      XAR4,#10              ; [CPU_U] |848| 
     488 0000005d 88A4          MOVZ      AR6,AR4               ; [CPU_] |848| 
     489              $C$DW$67        .dwtag  DW_TAG_TI_branch
     490                      .dwattr $C$DW$67, DW_AT_low_pc(0x00)
     491                      .dwattr $C$DW$67, DW_AT_name("FS$$TOFD")
     492                      .dwattr $C$DW$67, DW_AT_TI_call
     493              
     494 0000005e 7640!         LCR       #FS$$TOFD             ; [CPU_] |848| 
         0000005f 0000 
     495                      ; call occurs [#FS$$TOFD] ; [] |848| 
     496 00000060 5DAD          MOVZ      AR5,SP                ; [CPU_] |848| 
     497 00000061 5CAD          MOVZ      AR4,SP                ; [CPU_] |848| 
     498 00000062 DD86          SUBB      XAR5,#6               ; [CPU_U] |848| 
     499 00000063 DC8A          SUBB      XAR4,#10              ; [CPU_U] |848| 
     500 00000064 88A5          MOVZ      AR6,AR5               ; [CPU_] |848| 
     501 00000065 5CA4          MOVZ      AR4,AR4               ; [CPU_] |848| 
     502 00000066 8F40+         MOVL      XAR5,#$C$FL1          ; [CPU_U] |848| 
         00000067 0000 
     503              $C$DW$68        .dwtag  DW_TAG_TI_branch
     504                      .dwattr $C$DW$68, DW_AT_low_pc(0x00)
     505                      .dwattr $C$DW$68, DW_AT_name("FD$$MPY")
     506                      .dwattr $C$DW$68, DW_AT_TI_call
     507              
     508 00000068 7640!         LCR       #FD$$MPY              ; [CPU_] |848| 
         00000069 0000 
     509                      ; call occurs [#FD$$MPY] ; [] |848| 
     510 0000006a 5CAD          MOVZ      AR4,SP                ; [CPU_] |848| 
     511 0000006b DC86          SUBB      XAR4,#6               ; [CPU_U] |848| 
     512 0000006c 5CA4          MOVZ      AR4,AR4               ; [CPU_] |848| 
     513              $C$DW$69        .dwtag  DW_TAG_TI_branch
     514                      .dwattr $C$DW$69, DW_AT_low_pc(0x00)
     515                      .dwattr $C$DW$69, DW_AT_name("FD$$TOL")
     516                      .dwattr $C$DW$69, DW_AT_TI_call
     517              
     518 0000006d 7640!         LCR       #FD$$TOL              ; [CPU_] |848| 
         0000006e 0000 
     519                      ; call occurs [#FD$$TOL] ; [] |848| 
     520 0000006f D018          MOVB      XAR0,#24              ; [CPU_] |848| 
     521 00000070 8A93          MOVL      XAR4,*+XAR3[AR0]      ; [CPU_] |848| 
     522              $C$DW$70        .dwtag  DW_TAG_TI_branch
TMS320C2000 Assembler PC v16.9.6 Sun Jan 28 18:08:28 2018

Tools Copyright (c) 1996-2017 Texas Instruments Incorporated
C:\Users\Zulolo\AppData\Local\Temp\{7EDDBB07-3A94-4F89-8653-32F0EC9EC6F3} PAGE   11

     523                      .dwattr $C$DW$70, DW_AT_low_pc(0x00)
     524                      .dwattr $C$DW$70, DW_AT_name("_EST_setLs_d_pu")
     525                      .dwattr $C$DW$70, DW_AT_TI_call
     526              
     527 00000071 7640!         LCR       #_EST_setLs_d_pu      ; [CPU_] |848| 
         00000072 0000 
     528                      ; call occurs [#_EST_setLs_d_pu] ; [] |848| 
     529                      .dwpsn  file "../src/user.c",line 849,column 3,is_stmt,isa 0
     530 00000073 D018          MOVB      XAR0,#24              ; [CPU_] |849| 
     531 00000074 8A93          MOVL      XAR4,*+XAR3[AR0]      ; [CPU_] |849| 
     532 00000075 AAA9          MOVL      ACC,XAR2              ; [CPU_] |849| 
     533              $C$DW$71        .dwtag  DW_TAG_TI_branch
     534                      .dwattr $C$DW$71, DW_AT_low_pc(0x00)
     535                      .dwattr $C$DW$71, DW_AT_name("_EST_setLs_q_pu")
     536                      .dwattr $C$DW$71, DW_AT_TI_call
     537              
     538 00000076 7640!         LCR       #_EST_setLs_q_pu      ; [CPU_] |849| 
         00000077 0000 
     539                      ; call occurs [#_EST_setLs_q_pu] ; [] |849| 
     540                      .dwpsn  file "../src/user.c",line 850,column 3,is_stmt,isa 0
     541 00000078 9A1E          MOVB      AL,#30                ; [CPU_] |850| 
     542 00000079 D018          MOVB      XAR0,#24              ; [CPU_] |850| 
     543 0000007a 9E4B          SUB       AL,*-SP[11]           ; [CPU_] |850| 
     544 0000007b 8A93          MOVL      XAR4,*+XAR3[AR0]      ; [CPU_] |850| 
     545              $C$DW$72        .dwtag  DW_TAG_TI_branch
     546                      .dwattr $C$DW$72, DW_AT_low_pc(0x00)
     547                      .dwattr $C$DW$72, DW_AT_name("_EST_setLs_qFmt")
     548                      .dwattr $C$DW$72, DW_AT_TI_call
     549              
     550 0000007c 7640!         LCR       #_EST_setLs_qFmt      ; [CPU_] |850| 
         0000007d 0000 
     551                      ; call occurs [#_EST_setLs_qFmt] ; [] |850| 
     552 0000007e FE8C          SUBB      SP,#12                ; [CPU_U] 
     553                      .dwcfi  cfa_offset, -8
     554 0000007f 82BE          MOVL      XAR3,*--SP            ; [CPU_] 
     555                      .dwcfi  cfa_offset, -6
     556                      .dwcfi  restore_reg, 11
     557 00000080 86BE          MOVL      XAR2,*--SP            ; [CPU_] 
     558                      .dwcfi  cfa_offset, -4
     559                      .dwcfi  restore_reg, 9
     560 00000081 8BBE          MOVL      XAR1,*--SP            ; [CPU_] 
     561                      .dwcfi  cfa_offset, -2
     562                      .dwcfi  restore_reg, 7
     563              $C$DW$73        .dwtag  DW_TAG_TI_branch
     564                      .dwattr $C$DW$73, DW_AT_low_pc(0x00)
     565                      .dwattr $C$DW$73, DW_AT_TI_return
     566              
     567 00000082 0006          LRETR     ; [CPU_] 
     568                      ; return occurs ; [] 
     569                      .dwattr $C$DW$43, DW_AT_TI_end_file("../src/user.c")
     570                      .dwattr $C$DW$43, DW_AT_TI_end_line(0x355)
     571                      .dwattr $C$DW$43, DW_AT_TI_end_column(0x01)
     572                      .dwendentry
     573                      .dwendtag $C$DW$43
     574              
TMS320C2000 Assembler PC v16.9.6 Sun Jan 28 18:08:28 2018

Tools Copyright (c) 1996-2017 Texas Instruments Incorporated
C:\Users\Zulolo\AppData\Local\Temp\{7EDDBB07-3A94-4F89-8653-32F0EC9EC6F3} PAGE   12

     575 00000083               .sect   ".text"
     576                      .clink
     577                      .global _USER_setParams
     578              
     579              $C$DW$74        .dwtag  DW_TAG_subprogram
     580                      .dwattr $C$DW$74, DW_AT_name("USER_setParams")
     581                      .dwattr $C$DW$74, DW_AT_low_pc(_USER_setParams)
     582                      .dwattr $C$DW$74, DW_AT_high_pc(0x00)
     583                      .dwattr $C$DW$74, DW_AT_TI_symbol_name("_USER_setParams")
     584                      .dwattr $C$DW$74, DW_AT_external
     585                      .dwattr $C$DW$74, DW_AT_TI_begin_file("../src/user.c")
     586                      .dwattr $C$DW$74, DW_AT_TI_begin_line(0x39)
     587                      .dwattr $C$DW$74, DW_AT_TI_begin_column(0x06)
     588                      .dwattr $C$DW$74, DW_AT_TI_max_frame_size(-2)
     589                      .dwpsn  file "../src/user.c",line 58,column 1,is_stmt,address _USER_setParams,isa 0
     590              
     591                      .dwfde $C$DW$CIE, _USER_setParams
     592              $C$DW$75        .dwtag  DW_TAG_formal_parameter
     593                      .dwattr $C$DW$75, DW_AT_name("pUserParams")
     594                      .dwattr $C$DW$75, DW_AT_TI_symbol_name("_pUserParams")
     595                      .dwattr $C$DW$75, DW_AT_type(*$C$DW$T$79)
     596                      .dwattr $C$DW$75, DW_AT_location[DW_OP_reg12]
     597              
     598              
     599              ;***************************************************************
     600              ;* FNAME: _USER_setParams               FR SIZE:   0           *
     601              ;*                                                             *
     602              ;* FUNCTION ENVIRONMENT                                        *
     603              ;*                                                             *
     604              ;* FUNCTION PROPERTIES                                         *
     605              ;*                            0 Parameter,  0 Auto,  0 SOE     *
     606              ;***************************************************************
     607              
     608              _USER_setParams:
     609              ;* AR4   assigned to _pUserParams
     610              $C$DW$76        .dwtag  DW_TAG_variable
     611                      .dwattr $C$DW$76, DW_AT_name("pUserParams")
     612                      .dwattr $C$DW$76, DW_AT_TI_symbol_name("_pUserParams")
     613                      .dwattr $C$DW$76, DW_AT_type(*$C$DW$T$90)
     614                      .dwattr $C$DW$76, DW_AT_location[DW_OP_reg12]
     615              
     616                      .dwcfi  cfa_offset, -2
     617                      .dwcfi  save_reg_to_mem, 26, 0
     618                      .dwpsn  file "../src/user.c",line 59,column 3,is_stmt,isa 0
     619 00000083 9A00          MOV       AL,#0                 ; [CPU_] |59| 
     620 00000084 28A8          MOV       AH,#16832             ; [CPU_] |59| 
         00000085 41C0 
     621 00000086 1EC4          MOVL      *+XAR4[0],ACC         ; [CPU_] |59| 
     622                      .dwpsn  file "../src/user.c",line 66,column 3,is_stmt,isa 0
     623 00000087 D008          MOVB      XAR0,#8               ; [CPU_] |66| 
     624                      .dwpsn  file "../src/user.c",line 60,column 3,is_stmt,isa 0
     625 00000088 1ED4          MOVL      *+XAR4[2],ACC         ; [CPU_] |60| 
     626                      .dwpsn  file "../src/user.c",line 62,column 3,is_stmt,isa 0
     627 00000089 28A8          MOV       AH,#17480             ; [CPU_] |62| 
         0000008a 4448 
TMS320C2000 Assembler PC v16.9.6 Sun Jan 28 18:08:28 2018

Tools Copyright (c) 1996-2017 Texas Instruments Incorporated
C:\Users\Zulolo\AppData\Local\Temp\{7EDDBB07-3A94-4F89-8653-32F0EC9EC6F3} PAGE   13

     628 0000008b 1EE4          MOVL      *+XAR4[4],ACC         ; [CPU_] |62| 
     629                      .dwpsn  file "../src/user.c",line 64,column 3,is_stmt,isa 0
     630 0000008c 56BF          MOVB      *+XAR4[6],#1,UNC      ; [CPU_] |64| 
         0000008d 01F4 
     631                      .dwpsn  file "../src/user.c",line 65,column 3,is_stmt,isa 0
     632 0000008e 56BF          MOVB      *+XAR4[7],#1,UNC      ; [CPU_] |65| 
         0000008f 01FC 
     633                      .dwpsn  file "../src/user.c",line 73,column 3,is_stmt,isa 0
     634 00000090 28A8          MOV       AH,#16800             ; [CPU_] |73| 
         00000091 41A0 
     635                      .dwpsn  file "../src/user.c",line 66,column 3,is_stmt,isa 0
     636 00000092 56BF          MOVB      *+XAR4[AR0],#1,UNC    ; [CPU_] |66| 
         00000093 0194 
     637                      .dwpsn  file "../src/user.c",line 67,column 3,is_stmt,isa 0
     638 00000094 D009          MOVB      XAR0,#9               ; [CPU_] |67| 
     639 00000095 56BF          MOVB      *+XAR4[AR0],#15,UNC   ; [CPU_] |67| 
         00000096 0F94 
     640                      .dwpsn  file "../src/user.c",line 68,column 3,is_stmt,isa 0
     641 00000097 D00A          MOVB      XAR0,#10              ; [CPU_] |68| 
     642 00000098 56BF          MOVB      *+XAR4[AR0],#15,UNC   ; [CPU_] |68| 
         00000099 0F94 
     643                      .dwpsn  file "../src/user.c",line 70,column 3,is_stmt,isa 0
     644 0000009a D00B          MOVB      XAR0,#11              ; [CPU_] |70| 
     645 0000009b 3B01          SETC      SXM                   ; [CPU_] 
     646 0000009c 56BF          MOVB      *+XAR4[AR0],#3,UNC    ; [CPU_] |70| 
         0000009d 0394 
     647                      .dwpsn  file "../src/user.c",line 71,column 3,is_stmt,isa 0
     648 0000009e D00C          MOVB      XAR0,#12              ; [CPU_] |71| 
     649                      .dwpsn  file "../src/user.c",line 141,column 3,is_stmt,isa 0
     650 0000009f 8F41          MOVL      XAR5,#75000           ; [CPU_U] |141| 
         000000a0 24F8 
     651                      .dwpsn  file "../src/user.c",line 71,column 3,is_stmt,isa 0
     652 000000a1 56BF          MOVB      *+XAR4[AR0],#3,UNC    ; [CPU_] |71| 
         000000a2 0394 
     653                      .dwpsn  file "../src/user.c",line 73,column 3,is_stmt,isa 0
     654 000000a3 D00E          MOVB      XAR0,#14              ; [CPU_] |73| 
     655 000000a4 1E94          MOVL      *+XAR4[AR0],ACC       ; [CPU_] |73| 
     656                      .dwpsn  file "../src/user.c",line 74,column 3,is_stmt,isa 0
     657 000000a5 D010          MOVB      XAR0,#16              ; [CPU_] |74| 
     658 000000a6 28A8          MOV       AH,#17096             ; [CPU_] |74| 
         000000a7 42C8 
     659 000000a8 1E94          MOVL      *+XAR4[AR0],ACC       ; [CPU_] |74| 
     660                      .dwpsn  file "../src/user.c",line 76,column 3,is_stmt,isa 0
     661 000000a9 D012          MOVB      XAR0,#18              ; [CPU_] |76| 
     662 000000aa 28A8          MOV       AH,#14883             ; [CPU_] |76| 
         000000ab 3A23 
     663 000000ac 28A9          MOV       AL,#55050             ; [CPU_] |76| 
         000000ad D70A 
     664 000000ae 1E94          MOVL      *+XAR4[AR0],ACC       ; [CPU_] |76| 
     665                      .dwpsn  file "../src/user.c",line 78,column 3,is_stmt,isa 0
     666 000000af D014          MOVB      XAR0,#20              ; [CPU_] |78| 
     667 000000b0 FF2F          MOV       ACC,#32512 << 15      ; [CPU_] |78| 
         000000b1 7F00 
     668 000000b2 1E94          MOVL      *+XAR4[AR0],ACC       ; [CPU_] |78| 
     669                      .dwpsn  file "../src/user.c",line 80,column 3,is_stmt,isa 0
TMS320C2000 Assembler PC v16.9.6 Sun Jan 28 18:08:28 2018

Tools Copyright (c) 1996-2017 Texas Instruments Incorporated
C:\Users\Zulolo\AppData\Local\Temp\{7EDDBB07-3A94-4F89-8653-32F0EC9EC6F3} PAGE   14

     670 000000b3 D016          MOVB      XAR0,#22              ; [CPU_] |80| 
     671 000000b4 9A00          MOV       AL,#0                 ; [CPU_] |80| 
     672 000000b5 28A8          MOV       AH,#16800             ; [CPU_] |80| 
         000000b6 41A0 
     673 000000b7 1E94          MOVL      *+XAR4[AR0],ACC       ; [CPU_] |80| 
     674                      .dwpsn  file "../src/user.c",line 82,column 3,is_stmt,isa 0
     675 000000b8 D018          MOVB      XAR0,#24              ; [CPU_] |82| 
     676 000000b9 28A8          MOV       AH,#16544             ; [CPU_] |82| 
         000000ba 40A0 
     677 000000bb 1E94          MOVL      *+XAR4[AR0],ACC       ; [CPU_] |82| 
     678                      .dwpsn  file "../src/user.c",line 84,column 3,is_stmt,isa 0
     679 000000bc D01A          MOVB      XAR0,#26              ; [CPU_] |84| 
     680 000000bd 28A8          MOV       AH,#16576             ; [CPU_] |84| 
         000000be 40C0 
     681 000000bf 1E94          MOVL      *+XAR4[AR0],ACC       ; [CPU_] |84| 
     682                      .dwpsn  file "../src/user.c",line 86,column 3,is_stmt,isa 0
     683 000000c0 D01C          MOVB      XAR0,#28              ; [CPU_] |86| 
     684 000000c1 28A8          MOV       AH,#17096             ; [CPU_] |86| 
         000000c2 42C8 
     685 000000c3 1E94          MOVL      *+XAR4[AR0],ACC       ; [CPU_] |86| 
     686                      .dwpsn  file "../src/user.c",line 88,column 3,is_stmt,isa 0
     687 000000c4 D01E          MOVB      XAR0,#30              ; [CPU_] |88| 
     688 000000c5 1E94          MOVL      *+XAR4[AR0],ACC       ; [CPU_] |88| 
     689                      .dwpsn  file "../src/user.c",line 90,column 3,is_stmt,isa 0
     690 000000c6 D020          MOVB      XAR0,#32              ; [CPU_] |90| 
     691 000000c7 FF2F          MOV       ACC,#32512 << 15      ; [CPU_] |90| 
         000000c8 7F00 
     692 000000c9 1E94          MOVL      *+XAR4[AR0],ACC       ; [CPU_] |90| 
     693                      .dwpsn  file "../src/user.c",line 92,column 3,is_stmt,isa 0
     694 000000ca D022          MOVB      XAR0,#34              ; [CPU_] |92| 
     695 000000cb 1E94          MOVL      *+XAR4[AR0],ACC       ; [CPU_] |92| 
     696                      .dwpsn  file "../src/user.c",line 94,column 3,is_stmt,isa 0
     697 000000cc D026          MOVB      XAR0,#38              ; [CPU_] |94| 
     698                      .dwpsn  file "../src/user.c",line 96,column 3,is_stmt,isa 0
     699 000000cd 28A9          MOV       AL,#50972             ; [CPU_] |96| 
         000000ce C71C 
     700 000000cf 28A8          MOV       AH,#16817             ; [CPU_] |96| 
         000000d0 41B1 
     701                      .dwpsn  file "../src/user.c",line 94,column 3,is_stmt,isa 0
     702 000000d1 56BF          MOVB      *+XAR4[AR0],#60,UNC   ; [CPU_] |94| 
         000000d2 3C94 
     703                      .dwpsn  file "../src/user.c",line 96,column 3,is_stmt,isa 0
     704 000000d3 D028          MOVB      XAR0,#40              ; [CPU_] |96| 
     705 000000d4 1E94          MOVL      *+XAR4[AR0],ACC       ; [CPU_] |96| 
     706                      .dwpsn  file "../src/user.c",line 98,column 3,is_stmt,isa 0
     707 000000d5 D02A          MOVB      XAR0,#42              ; [CPU_] |98| 
     708 000000d6 28A9          MOV       AL,#37573             ; [CPU_] |98| 
         000000d7 92C5 
     709 000000d8 28A8          MOV       AH,#16359             ; [CPU_] |98| 
         000000d9 3FE7 
     710 000000da 1E94          MOVL      *+XAR4[AR0],ACC       ; [CPU_] |98| 
     711                      .dwpsn  file "../src/user.c",line 100,column 3,is_stmt,isa 0
     712 000000db D02C          MOVB      XAR0,#44              ; [CPU_] |100| 
     713 000000dc 28A9          MOV       AL,#27088             ; [CPU_] |100| 
         000000dd 69D0 
TMS320C2000 Assembler PC v16.9.6 Sun Jan 28 18:08:28 2018

Tools Copyright (c) 1996-2017 Texas Instruments Incorporated
C:\Users\Zulolo\AppData\Local\Temp\{7EDDBB07-3A94-4F89-8653-32F0EC9EC6F3} PAGE   15

     714 000000de 28A8          MOV       AH,#16379             ; [CPU_] |100| 
         000000df 3FFB 
     715 000000e0 1E94          MOVL      *+XAR4[AR0],ACC       ; [CPU_] |100| 
     716                      .dwpsn  file "../src/user.c",line 102,column 3,is_stmt,isa 0
     717 000000e1 D02E          MOVB      XAR0,#46              ; [CPU_] |102| 
     718 000000e2 28A9          MOV       AL,#21755             ; [CPU_] |102| 
         000000e3 54FB 
     719 000000e4 28A8          MOV       AH,#17671             ; [CPU_] |102| 
         000000e5 4507 
     720 000000e6 1E94          MOVL      *+XAR4[AR0],ACC       ; [CPU_] |102| 
     721                      .dwpsn  file "../src/user.c",line 104,column 3,is_stmt,isa 0
     722 000000e7 D030          MOVB      XAR0,#48              ; [CPU_] |104| 
     723 000000e8 FF2F          MOV       ACC,#32256 << 15      ; [CPU_] |104| 
         000000e9 7E00 
     724 000000ea 1E94          MOVL      *+XAR4[AR0],ACC       ; [CPU_] |104| 
     725                      .dwpsn  file "../src/user.c",line 106,column 3,is_stmt,isa 0
     726 000000eb D032          MOVB      XAR0,#50              ; [CPU_] |106| 
     727 000000ec FF2F          MOV       ACC,#32640 << 15      ; [CPU_] |106| 
         000000ed 7F80 
     728 000000ee 1E94          MOVL      *+XAR4[AR0],ACC       ; [CPU_] |106| 
     729                      .dwpsn  file "../src/user.c",line 108,column 3,is_stmt,isa 0
     730 000000ef D034          MOVB      XAR0,#52              ; [CPU_] |108| 
     731                      .dwpsn  file "../src/user.c",line 110,column 3,is_stmt,isa 0
     732 000000f0 28A9          MOV       AL,#9792              ; [CPU_] |110| 
         000000f1 2640 
     733 000000f2 28A8          MOV       AH,#15312             ; [CPU_] |110| 
         000000f3 3BD0 
     734                      .dwpsn  file "../src/user.c",line 108,column 3,is_stmt,isa 0
     735 000000f4 56BF          MOVB      *+XAR4[AR0],#1,UNC    ; [CPU_] |108| 
         000000f5 0194 
     736                      .dwpsn  file "../src/user.c",line 109,column 3,is_stmt,isa 0
     737 000000f6 D035          MOVB      XAR0,#53              ; [CPU_] |109| 
     738 000000f7 56BF          MOVB      *+XAR4[AR0],#4,UNC    ; [CPU_] |109| 
         000000f8 0494 
     739                      .dwpsn  file "../src/user.c",line 110,column 3,is_stmt,isa 0
     740 000000f9 D036          MOVB      XAR0,#54              ; [CPU_] |110| 
     741 000000fa 1E94          MOVL      *+XAR4[AR0],ACC       ; [CPU_] |110| 
     742                      .dwpsn  file "../src/user.c",line 111,column 3,is_stmt,isa 0
     743 000000fb D038          MOVB      XAR0,#56              ; [CPU_] |111| 
     744 000000fc 9A00          MOV       AL,#0                 ; [CPU_] |111| 
     745 000000fd 9B00          MOV       AH,#0                 ; [CPU_] |111| 
     746 000000fe 1E94          MOVL      *+XAR4[AR0],ACC       ; [CPU_] |111| 
     747                      .dwpsn  file "../src/user.c",line 112,column 3,is_stmt,isa 0
     748 000000ff D03A          MOVB      XAR0,#58              ; [CPU_] |112| 
     749 00000100 28A9          MOV       AL,#27067             ; [CPU_] |112| 
         00000101 69BB 
     750 00000102 28A8          MOV       AH,#15550             ; [CPU_] |112| 
         00000103 3CBE 
     751 00000104 1E94          MOVL      *+XAR4[AR0],ACC       ; [CPU_] |112| 
     752                      .dwpsn  file "../src/user.c",line 113,column 3,is_stmt,isa 0
     753 00000105 D03C          MOVB      XAR0,#60              ; [CPU_] |113| 
     754 00000106 28A9          MOV       AL,#60053             ; [CPU_] |113| 
         00000107 EA95 
     755 00000108 28A8          MOV       AH,#13837             ; [CPU_] |113| 
         00000109 360D 
TMS320C2000 Assembler PC v16.9.6 Sun Jan 28 18:08:28 2018

Tools Copyright (c) 1996-2017 Texas Instruments Incorporated
C:\Users\Zulolo\AppData\Local\Temp\{7EDDBB07-3A94-4F89-8653-32F0EC9EC6F3} PAGE   16

     756 0000010a 1E94          MOVL      *+XAR4[AR0],ACC       ; [CPU_] |113| 
     757                      .dwpsn  file "../src/user.c",line 114,column 3,is_stmt,isa 0
     758 0000010b D03E          MOVB      XAR0,#62              ; [CPU_] |114| 
     759 0000010c 1E94          MOVL      *+XAR4[AR0],ACC       ; [CPU_] |114| 
     760                      .dwpsn  file "../src/user.c",line 122,column 7,is_stmt,isa 0
     761 0000010d D024          MOVB      XAR0,#36              ; [CPU_] |122| 
     762 0000010e FF2F          MOV       ACC,#32512 << 15      ; [CPU_] |122| 
         0000010f 7F00 
     763 00000110 1E94          MOVL      *+XAR4[AR0],ACC       ; [CPU_] |122| 
     764                      .dwpsn  file "../src/user.c",line 125,column 3,is_stmt,isa 0
     765 00000111 D042          MOVB      XAR0,#66              ; [CPU_] |125| 
     766 00000112 9A00          MOV       AL,#0                 ; [CPU_] |125| 
     767 00000113 28A8          MOV       AH,#16448             ; [CPU_] |125| 
         00000114 4040 
     768 00000115 1E94          MOVL      *+XAR4[AR0],ACC       ; [CPU_] |125| 
     769                      .dwpsn  file "../src/user.c",line 126,column 3,is_stmt,isa 0
     770 00000116 D044          MOVB      XAR0,#68              ; [CPU_] |126| 
     771 00000117 FF2F          MOV       ACC,#-32640 << 15     ; [CPU_] |126| 
         00000118 8080 
     772 00000119 1E94          MOVL      *+XAR4[AR0],ACC       ; [CPU_] |126| 
     773                      .dwpsn  file "../src/user.c",line 127,column 3,is_stmt,isa 0
     774 0000011a D040          MOVB      XAR0,#64              ; [CPU_] |127| 
     775 0000011b 9A00          MOV       AL,#0                 ; [CPU_] |127| 
     776 0000011c 28A8          MOV       AH,#16672             ; [CPU_] |127| 
         0000011d 4120 
     777 0000011e 1E94          MOVL      *+XAR4[AR0],ACC       ; [CPU_] |127| 
     778                      .dwpsn  file "../src/user.c",line 129,column 3,is_stmt,isa 0
     779 0000011f D046          MOVB      XAR0,#70              ; [CPU_] |129| 
     780 00000120 28A9          MOV       AL,#4719              ; [CPU_] |129| 
         00000121 126F 
     781 00000122 28A8          MOV       AH,#14595             ; [CPU_] |129| 
         00000123 3903 
     782 00000124 1E94          MOVL      *+XAR4[AR0],ACC       ; [CPU_] |129| 
     783                      .dwpsn  file "../src/user.c",line 130,column 3,is_stmt,isa 0
     784 00000125 D048          MOVB      XAR0,#72              ; [CPU_] |130| 
     785 00000126 28A9          MOV       AL,#18770             ; [CPU_] |130| 
         00000127 4952 
     786 00000128 28A8          MOV       AH,#14365             ; [CPU_] |130| 
         00000129 381D 
     787 0000012a 1E94          MOVL      *+XAR4[AR0],ACC       ; [CPU_] |130| 
     788                      .dwpsn  file "../src/user.c",line 132,column 3,is_stmt,isa 0
     789 0000012b D04A          MOVB      XAR0,#74              ; [CPU_] |132| 
     790 0000012c 9A00          MOV       AL,#0                 ; [CPU_] |132| 
     791 0000012d 9B00          MOV       AH,#0                 ; [CPU_] |132| 
     792 0000012e 1E94          MOVL      *+XAR4[AR0],ACC       ; [CPU_] |132| 
     793                      .dwpsn  file "../src/user.c",line 133,column 3,is_stmt,isa 0
     794 0000012f D04E          MOVB      XAR0,#78              ; [CPU_] |133| 
     795 00000130 FF2F          MOV       ACC,#32512 << 15      ; [CPU_] |133| 
         00000131 7F00 
     796 00000132 1E94          MOVL      *+XAR4[AR0],ACC       ; [CPU_] |133| 
     797                      .dwpsn  file "../src/user.c",line 134,column 3,is_stmt,isa 0
     798 00000133 D04C          MOVB      XAR0,#76              ; [CPU_] |134| 
     799 00000134 1E94          MOVL      *+XAR4[AR0],ACC       ; [CPU_] |134| 
     800                      .dwpsn  file "../src/user.c",line 135,column 3,is_stmt,isa 0
     801 00000135 D050          MOVB      XAR0,#80              ; [CPU_] |135| 
TMS320C2000 Assembler PC v16.9.6 Sun Jan 28 18:08:28 2018

Tools Copyright (c) 1996-2017 Texas Instruments Incorporated
C:\Users\Zulolo\AppData\Local\Temp\{7EDDBB07-3A94-4F89-8653-32F0EC9EC6F3} PAGE   17

     802 00000136 28A9          MOV       AL,#50604             ; [CPU_] |135| 
         00000137 C5AC 
     803 00000138 28A8          MOV       AH,#14247             ; [CPU_] |135| 
         00000139 37A7 
     804 0000013a 1E94          MOVL      *+XAR4[AR0],ACC       ; [CPU_] |135| 
     805                      .dwpsn  file "../src/user.c",line 137,column 3,is_stmt,isa 0
     806 0000013b D052          MOVB      XAR0,#82              ; [CPU_] |137| 
     807 0000013c 9A00          MOV       AL,#0                 ; [CPU_] |137| 
     808 0000013d 28A8          MOV       AH,#16928             ; [CPU_] |137| 
         0000013e 4220 
     809 0000013f 1E94          MOVL      *+XAR4[AR0],ACC       ; [CPU_] |137| 
     810                      .dwpsn  file "../src/user.c",line 139,column 3,is_stmt,isa 0
     811 00000140 D054          MOVB      XAR0,#84              ; [CPU_] |139| 
     812 00000141 0200          MOVB      ACC,#0                ; [CPU_] |139| 
     813 00000142 1E94          MOVL      *+XAR4[AR0],ACC       ; [CPU_] |139| 
     814                      .dwpsn  file "../src/user.c",line 140,column 3,is_stmt,isa 0
     815 00000143 D056          MOVB      XAR0,#86              ; [CPU_] |140| 
     816 00000144 1E94          MOVL      *+XAR4[AR0],ACC       ; [CPU_] |140| 
     817                      .dwpsn  file "../src/user.c",line 141,column 3,is_stmt,isa 0
     818 00000145 D058          MOVB      XAR0,#88              ; [CPU_] |141| 
     819 00000146 A094          MOVL      *+XAR4[AR0],XAR5      ; [CPU_] |141| 
     820                      .dwpsn  file "../src/user.c",line 142,column 3,is_stmt,isa 0
     821 00000147 D05A          MOVB      XAR0,#90              ; [CPU_] |142| 
     822                      .dwpsn  file "../src/user.c",line 146,column 3,is_stmt,isa 0
     823 00000148 8F41          MOVL      XAR5,#120000          ; [CPU_U] |146| 
         00000149 D4C0 
     824                      .dwpsn  file "../src/user.c",line 142,column 3,is_stmt,isa 0
     825 0000014a 1E94          MOVL      *+XAR4[AR0],ACC       ; [CPU_] |142| 
     826                      .dwpsn  file "../src/user.c",line 144,column 3,is_stmt,isa 0
     827 0000014b D05C          MOVB      XAR0,#92              ; [CPU_] |144| 
     828 0000014c 1E94          MOVL      *+XAR4[AR0],ACC       ; [CPU_] |144| 
     829                      .dwpsn  file "../src/user.c",line 145,column 3,is_stmt,isa 0
     830 0000014d D05E          MOVB      XAR0,#94              ; [CPU_] |145| 
     831 0000014e 1E94          MOVL      *+XAR4[AR0],ACC       ; [CPU_] |145| 
     832                      .dwpsn  file "../src/user.c",line 146,column 3,is_stmt,isa 0
     833 0000014f D060          MOVB      XAR0,#96              ; [CPU_] |146| 
     834 00000150 A094          MOVL      *+XAR4[AR0],XAR5      ; [CPU_] |146| 
     835                      .dwpsn  file "../src/user.c",line 147,column 3,is_stmt,isa 0
     836 00000151 D062          MOVB      XAR0,#98              ; [CPU_] |147| 
     837                      .dwpsn  file "../src/user.c",line 148,column 3,is_stmt,isa 0
     838 00000152 8F42          MOVL      XAR5,#195000          ; [CPU_U] |148| 
         00000153 F9B8 
     839                      .dwpsn  file "../src/user.c",line 147,column 3,is_stmt,isa 0
     840 00000154 1E94          MOVL      *+XAR4[AR0],ACC       ; [CPU_] |147| 
     841                      .dwpsn  file "../src/user.c",line 148,column 3,is_stmt,isa 0
     842 00000155 D064          MOVB      XAR0,#100             ; [CPU_] |148| 
     843 00000156 A094          MOVL      *+XAR4[AR0],XAR5      ; [CPU_] |148| 
     844                      .dwpsn  file "../src/user.c",line 149,column 3,is_stmt,isa 0
     845 00000157 D066          MOVB      XAR0,#102             ; [CPU_] |149| 
     846 00000158 8F46          MOVL      XAR5,#450000          ; [CPU_U] |149| 
         00000159 DDD0 
     847 0000015a A094          MOVL      *+XAR4[AR0],XAR5      ; [CPU_] |149| 
     848                      .dwpsn  file "../src/user.c",line 150,column 3,is_stmt,isa 0
     849 0000015b D068          MOVB      XAR0,#104             ; [CPU_] |150| 
     850 0000015c 8F40          MOVL      XAR5,#3000            ; [CPU_U] |150| 
TMS320C2000 Assembler PC v16.9.6 Sun Jan 28 18:08:28 2018

Tools Copyright (c) 1996-2017 Texas Instruments Incorporated
C:\Users\Zulolo\AppData\Local\Temp\{7EDDBB07-3A94-4F89-8653-32F0EC9EC6F3} PAGE   18

         0000015d 0BB8 
     851 0000015e A094          MOVL      *+XAR4[AR0],XAR5      ; [CPU_] |150| 
     852                      .dwpsn  file "../src/user.c",line 151,column 3,is_stmt,isa 0
     853 0000015f D06A          MOVB      XAR0,#106             ; [CPU_] |151| 
     854                      .dwpsn  file "../src/user.c",line 152,column 3,is_stmt,isa 0
     855 00000160 8F40          MOVL      XAR5,#30000           ; [CPU_U] |152| 
         00000161 7530 
     856                      .dwpsn  file "../src/user.c",line 151,column 3,is_stmt,isa 0
     857 00000162 1E94          MOVL      *+XAR4[AR0],ACC       ; [CPU_] |151| 
     858                      .dwpsn  file "../src/user.c",line 152,column 3,is_stmt,isa 0
     859 00000163 D06C          MOVB      XAR0,#108             ; [CPU_] |152| 
     860 00000164 A094          MOVL      *+XAR4[AR0],XAR5      ; [CPU_] |152| 
     861                      .dwpsn  file "../src/user.c",line 153,column 3,is_stmt,isa 0
     862 00000165 D06E          MOVB      XAR0,#110             ; [CPU_] |153| 
     863                      .dwpsn  file "../src/user.c",line 155,column 3,is_stmt,isa 0
     864 00000166 8F44          MOVL      XAR5,#300000          ; [CPU_U] |155| 
         00000167 93E0 
     865                      .dwpsn  file "../src/user.c",line 153,column 3,is_stmt,isa 0
     866 00000168 1E94          MOVL      *+XAR4[AR0],ACC       ; [CPU_] |153| 
     867                      .dwpsn  file "../src/user.c",line 154,column 3,is_stmt,isa 0
     868 00000169 D070          MOVB      XAR0,#112             ; [CPU_] |154| 
     869 0000016a 1E94          MOVL      *+XAR4[AR0],ACC       ; [CPU_] |154| 
     870                      .dwpsn  file "../src/user.c",line 155,column 3,is_stmt,isa 0
     871 0000016b D072          MOVB      XAR0,#114             ; [CPU_] |155| 
     872 0000016c A094          MOVL      *+XAR4[AR0],XAR5      ; [CPU_] |155| 
     873                      .dwpsn  file "../src/user.c",line 156,column 3,is_stmt,isa 0
     874 0000016d D074          MOVB      XAR0,#116             ; [CPU_] |156| 
     875                      .dwpsn  file "../src/user.c",line 161,column 3,is_stmt,isa 0
     876 0000016e 8F42          MOVL      XAR5,#150000          ; [CPU_U] |161| 
         0000016f 49F0 
     877                      .dwpsn  file "../src/user.c",line 156,column 3,is_stmt,isa 0
     878 00000170 1E94          MOVL      *+XAR4[AR0],ACC       ; [CPU_] |156| 
     879                      .dwpsn  file "../src/user.c",line 157,column 3,is_stmt,isa 0
     880 00000171 D076          MOVB      XAR0,#118             ; [CPU_] |157| 
     881 00000172 1E94          MOVL      *+XAR4[AR0],ACC       ; [CPU_] |157| 
     882                      .dwpsn  file "../src/user.c",line 159,column 3,is_stmt,isa 0
     883 00000173 D078          MOVB      XAR0,#120             ; [CPU_] |159| 
     884 00000174 1E94          MOVL      *+XAR4[AR0],ACC       ; [CPU_] |159| 
     885                      .dwpsn  file "../src/user.c",line 160,column 3,is_stmt,isa 0
     886 00000175 D07A          MOVB      XAR0,#122             ; [CPU_] |160| 
     887 00000176 1E94          MOVL      *+XAR4[AR0],ACC       ; [CPU_] |160| 
     888                      .dwpsn  file "../src/user.c",line 161,column 3,is_stmt,isa 0
     889 00000177 D07C          MOVB      XAR0,#124             ; [CPU_] |161| 
     890 00000178 A094          MOVL      *+XAR4[AR0],XAR5      ; [CPU_] |161| 
     891                      .dwpsn  file "../src/user.c",line 162,column 3,is_stmt,isa 0
     892 00000179 D07E          MOVB      XAR0,#126             ; [CPU_] |162| 
     893 0000017a 8F40          MOVL      XAR5,#3000            ; [CPU_U] |162| 
         0000017b 0BB8 
     894 0000017c A094          MOVL      *+XAR4[AR0],XAR5      ; [CPU_] |162| 
     895                      .dwpsn  file "../src/user.c",line 163,column 3,is_stmt,isa 0
     896 0000017d D080          MOVB      XAR0,#128             ; [CPU_] |163| 
     897 0000017e 8F40          MOVL      XAR5,#60000           ; [CPU_U] |163| 
         0000017f EA60 
     898 00000180 A094          MOVL      *+XAR4[AR0],XAR5      ; [CPU_] |163| 
     899                      .dwpsn  file "../src/user.c",line 164,column 3,is_stmt,isa 0
TMS320C2000 Assembler PC v16.9.6 Sun Jan 28 18:08:28 2018

Tools Copyright (c) 1996-2017 Texas Instruments Incorporated
C:\Users\Zulolo\AppData\Local\Temp\{7EDDBB07-3A94-4F89-8653-32F0EC9EC6F3} PAGE   19

     900 00000181 D082          MOVB      XAR0,#130             ; [CPU_] |164| 
     901                      .dwpsn  file "../src/user.c",line 168,column 3,is_stmt,isa 0
     902 00000182 8F40          MOVL      XAR5,#45000           ; [CPU_U] |168| 
         00000183 AFC8 
     903                      .dwpsn  file "../src/user.c",line 164,column 3,is_stmt,isa 0
     904 00000184 1E94          MOVL      *+XAR4[AR0],ACC       ; [CPU_] |164| 
     905                      .dwpsn  file "../src/user.c",line 166,column 3,is_stmt,isa 0
     906 00000185 D084          MOVB      XAR0,#132             ; [CPU_] |166| 
     907 00000186 1E94          MOVL      *+XAR4[AR0],ACC       ; [CPU_] |166| 
     908                      .dwpsn  file "../src/user.c",line 167,column 3,is_stmt,isa 0
     909 00000187 D086          MOVB      XAR0,#134             ; [CPU_] |167| 
     910 00000188 1E94          MOVL      *+XAR4[AR0],ACC       ; [CPU_] |167| 
     911                      .dwpsn  file "../src/user.c",line 168,column 3,is_stmt,isa 0
     912 00000189 D088          MOVB      XAR0,#136             ; [CPU_] |168| 
     913 0000018a A094          MOVL      *+XAR4[AR0],XAR5      ; [CPU_] |168| 
     914                      .dwpsn  file "../src/user.c",line 169,column 3,is_stmt,isa 0
     915 0000018b D08A          MOVB      XAR0,#138             ; [CPU_] |169| 
     916 0000018c A094          MOVL      *+XAR4[AR0],XAR5      ; [CPU_] |169| 
     917                      .dwpsn  file "../src/user.c",line 170,column 3,is_stmt,isa 0
     918 0000018d D08C          MOVB      XAR0,#140             ; [CPU_] |170| 
     919 0000018e 8F40          MOVL      XAR5,#3000            ; [CPU_U] |170| 
         0000018f 0BB8 
     920 00000190 A094          MOVL      *+XAR4[AR0],XAR5      ; [CPU_] |170| 
     921                      .dwpsn  file "../src/user.c",line 171,column 3,is_stmt,isa 0
     922 00000191 D08E          MOVB      XAR0,#142             ; [CPU_] |171| 
     923 00000192 8F46          MOVL      XAR5,#450000          ; [CPU_U] |171| 
         00000193 DDD0 
     924 00000194 A094          MOVL      *+XAR4[AR0],XAR5      ; [CPU_] |171| 
     925                      .dwpsn  file "../src/user.c",line 172,column 3,is_stmt,isa 0
     926 00000195 D090          MOVB      XAR0,#144             ; [CPU_] |172| 
     927                      .dwpsn  file "../src/user.c",line 176,column 3,is_stmt,isa 0
     928 00000196 8F40          MOVL      XAR5,#15000           ; [CPU_U] |176| 
         00000197 3A98 
     929                      .dwpsn  file "../src/user.c",line 172,column 3,is_stmt,isa 0
     930 00000198 1E94          MOVL      *+XAR4[AR0],ACC       ; [CPU_] |172| 
     931                      .dwpsn  file "../src/user.c",line 174,column 3,is_stmt,isa 0
     932 00000199 D092          MOVB      XAR0,#146             ; [CPU_] |174| 
     933 0000019a 1E94          MOVL      *+XAR4[AR0],ACC       ; [CPU_] |174| 
     934                      .dwpsn  file "../src/user.c",line 175,column 3,is_stmt,isa 0
     935 0000019b D094          MOVB      XAR0,#148             ; [CPU_] |175| 
     936 0000019c 1E94          MOVL      *+XAR4[AR0],ACC       ; [CPU_] |175| 
     937                      .dwpsn  file "../src/user.c",line 176,column 3,is_stmt,isa 0
     938 0000019d D096          MOVB      XAR0,#150             ; [CPU_] |176| 
     939 0000019e A094          MOVL      *+XAR4[AR0],XAR5      ; [CPU_] |176| 
     940                      .dwpsn  file "../src/user.c",line 177,column 3,is_stmt,isa 0
     941 0000019f D098          MOVB      XAR0,#152             ; [CPU_] |177| 
     942 000001a0 8F40          MOVL      XAR5,#30000           ; [CPU_U] |177| 
         000001a1 7530 
     943 000001a2 A094          MOVL      *+XAR4[AR0],XAR5      ; [CPU_] |177| 
     944                      .dwpsn  file "../src/user.c",line 178,column 3,is_stmt,isa 0
     945 000001a3 D09A          MOVB      XAR0,#154             ; [CPU_] |178| 
     946 000001a4 8F41          MOVL      XAR5,#105000          ; [CPU_U] |178| 
         000001a5 9A28 
     947 000001a6 A094          MOVL      *+XAR4[AR0],XAR5      ; [CPU_] |178| 
     948                      .dwpsn  file "../src/user.c",line 179,column 3,is_stmt,isa 0
TMS320C2000 Assembler PC v16.9.6 Sun Jan 28 18:08:28 2018

Tools Copyright (c) 1996-2017 Texas Instruments Incorporated
C:\Users\Zulolo\AppData\Local\Temp\{7EDDBB07-3A94-4F89-8653-32F0EC9EC6F3} PAGE   20

     949 000001a7 D09C          MOVB      XAR0,#156             ; [CPU_] |179| 
     950                      .dwpsn  file "../src/user.c",line 181,column 3,is_stmt,isa 0
     951 000001a8 8F40          MOVL      XAR5,#15000           ; [CPU_U] |181| 
         000001a9 3A98 
     952                      .dwpsn  file "../src/user.c",line 179,column 3,is_stmt,isa 0
     953 000001aa 1E94          MOVL      *+XAR4[AR0],ACC       ; [CPU_] |179| 
     954                      .dwpsn  file "../src/user.c",line 181,column 3,is_stmt,isa 0
     955 000001ab D09E          MOVB      XAR0,#158             ; [CPU_] |181| 
     956                      .dwpsn  file "../src/user.c",line 189,column 3,is_stmt,isa 0
     957 000001ac 28A9          MOV       AL,#53093             ; [CPU_] |189| 
         000001ad CF65 
     958 000001ae 28A8          MOV       AH,#14475             ; [CPU_] |189| 
         000001af 388B 
     959                      .dwpsn  file "../src/user.c",line 181,column 3,is_stmt,isa 0
     960 000001b0 A094          MOVL      *+XAR4[AR0],XAR5      ; [CPU_] |181| 
     961                      .dwpsn  file "../src/user.c",line 183,column 3,is_stmt,isa 0
     962 000001b1 D0A0          MOVB      XAR0,#160             ; [CPU_] |183| 
     963 000001b2 A094          MOVL      *+XAR4[AR0],XAR5      ; [CPU_] |183| 
     964                      .dwpsn  file "../src/user.c",line 185,column 3,is_stmt,isa 0
     965 000001b3 D0A2          MOVB      XAR0,#162             ; [CPU_] |185| 
     966 000001b4 8F40          MOVL      XAR5,#300             ; [CPU_U] |185| 
         000001b5 012C 
     967 000001b6 A094          MOVL      *+XAR4[AR0],XAR5      ; [CPU_] |185| 
     968                      .dwpsn  file "../src/user.c",line 187,column 3,is_stmt,isa 0
     969 000001b7 D0A4          MOVB      XAR0,#164             ; [CPU_] |187| 
     970 000001b8 8F40          MOVL      XAR5,#1000            ; [CPU_U] |187| 
         000001b9 03E8 
     971 000001ba A094          MOVL      *+XAR4[AR0],XAR5      ; [CPU_] |187| 
     972                      .dwpsn  file "../src/user.c",line 189,column 3,is_stmt,isa 0
     973 000001bb D0A6          MOVB      XAR0,#166             ; [CPU_] |189| 
     974 000001bc 1E94          MOVL      *+XAR4[AR0],ACC       ; [CPU_] |189| 
     975                      .dwpsn  file "../src/user.c",line 191,column 3,is_stmt,isa 0
     976 000001bd FF2F          MOV       ACC,#-32448 << 15     ; [CPU_] |191| 
         000001be 8140 
     977 000001bf D0A8          MOVB      XAR0,#168             ; [CPU_] |191| 
     978 000001c0 1E94          MOVL      *+XAR4[AR0],ACC       ; [CPU_] |191| 
     979              $C$DW$77        .dwtag  DW_TAG_TI_branch
     980                      .dwattr $C$DW$77, DW_AT_low_pc(0x00)
     981                      .dwattr $C$DW$77, DW_AT_TI_return
     982              
     983 000001c1 0006          LRETR     ; [CPU_] 
     984                      ; return occurs ; [] 
     985                      .dwattr $C$DW$74, DW_AT_TI_end_file("../src/user.c")
     986                      .dwattr $C$DW$74, DW_AT_TI_end_line(0xc2)
     987                      .dwattr $C$DW$74, DW_AT_TI_end_column(0x01)
     988                      .dwendentry
     989                      .dwendtag $C$DW$74
     990              
     991 000001c2               .sect   ".text"
     992                      .clink
     993                      .global _USER_setErrorCode
     994              
     995              $C$DW$78        .dwtag  DW_TAG_subprogram
     996                      .dwattr $C$DW$78, DW_AT_name("USER_setErrorCode")
     997                      .dwattr $C$DW$78, DW_AT_low_pc(_USER_setErrorCode)
TMS320C2000 Assembler PC v16.9.6 Sun Jan 28 18:08:28 2018

Tools Copyright (c) 1996-2017 Texas Instruments Incorporated
C:\Users\Zulolo\AppData\Local\Temp\{7EDDBB07-3A94-4F89-8653-32F0EC9EC6F3} PAGE   21

     998                      .dwattr $C$DW$78, DW_AT_high_pc(0x00)
     999                      .dwattr $C$DW$78, DW_AT_TI_symbol_name("_USER_setErrorCode")
    1000                      .dwattr $C$DW$78, DW_AT_external
    1001                      .dwattr $C$DW$78, DW_AT_TI_begin_file("../src/user.c")
    1002                      .dwattr $C$DW$78, DW_AT_TI_begin_line(0x33b)
    1003                      .dwattr $C$DW$78, DW_AT_TI_begin_column(0x06)
    1004                      .dwattr $C$DW$78, DW_AT_TI_max_frame_size(-2)
    1005                      .dwpsn  file "../src/user.c",line 828,column 1,is_stmt,address _USER_setErrorCode,isa 0
    1006              
    1007                      .dwfde $C$DW$CIE, _USER_setErrorCode
    1008              $C$DW$79        .dwtag  DW_TAG_formal_parameter
    1009                      .dwattr $C$DW$79, DW_AT_name("pUserParams")
    1010                      .dwattr $C$DW$79, DW_AT_TI_symbol_name("_pUserParams")
    1011                      .dwattr $C$DW$79, DW_AT_type(*$C$DW$T$79)
    1012                      .dwattr $C$DW$79, DW_AT_location[DW_OP_reg12]
    1013              
    1014              $C$DW$80        .dwtag  DW_TAG_formal_parameter
    1015                      .dwattr $C$DW$80, DW_AT_name("errorCode")
    1016                      .dwattr $C$DW$80, DW_AT_TI_symbol_name("_errorCode")
    1017                      .dwattr $C$DW$80, DW_AT_type(*$C$DW$T$75)
    1018                      .dwattr $C$DW$80, DW_AT_location[DW_OP_reg0]
    1019              
    1020              
    1021              ;***************************************************************
    1022              ;* FNAME: _USER_setErrorCode            FR SIZE:   0           *
    1023              ;*                                                             *
    1024              ;* FUNCTION ENVIRONMENT                                        *
    1025              ;*                                                             *
    1026              ;* FUNCTION PROPERTIES                                         *
    1027              ;*                            0 Parameter,  0 Auto,  0 SOE     *
    1028              ;***************************************************************
    1029              
    1030              _USER_setErrorCode:
    1031              ;* AR4   assigned to _pUserParams
    1032              $C$DW$81        .dwtag  DW_TAG_variable
    1033                      .dwattr $C$DW$81, DW_AT_name("pUserParams")
    1034                      .dwattr $C$DW$81, DW_AT_TI_symbol_name("_pUserParams")
    1035                      .dwattr $C$DW$81, DW_AT_type(*$C$DW$T$90)
    1036                      .dwattr $C$DW$81, DW_AT_location[DW_OP_reg12]
    1037              
    1038              ;* AL    assigned to _errorCode
    1039              $C$DW$82        .dwtag  DW_TAG_variable
    1040                      .dwattr $C$DW$82, DW_AT_name("errorCode")
    1041                      .dwattr $C$DW$82, DW_AT_TI_symbol_name("_errorCode")
    1042                      .dwattr $C$DW$82, DW_AT_type(*$C$DW$T$77)
    1043                      .dwattr $C$DW$82, DW_AT_location[DW_OP_reg0]
    1044              
    1045                      .dwcfi  cfa_offset, -2
    1046                      .dwcfi  save_reg_to_mem, 26, 0
    1047                      .dwpsn  file "../src/user.c",line 829,column 3,is_stmt,isa 0
    1048 000001c2 D0AA          MOVB      XAR0,#170             ; [CPU_] |829| 
    1049 000001c3 9694          MOV       *+XAR4[AR0],AL        ; [CPU_] |829| 
    1050              $C$DW$83        .dwtag  DW_TAG_TI_branch
    1051                      .dwattr $C$DW$83, DW_AT_low_pc(0x00)
    1052                      .dwattr $C$DW$83, DW_AT_TI_return
TMS320C2000 Assembler PC v16.9.6 Sun Jan 28 18:08:28 2018

Tools Copyright (c) 1996-2017 Texas Instruments Incorporated
C:\Users\Zulolo\AppData\Local\Temp\{7EDDBB07-3A94-4F89-8653-32F0EC9EC6F3} PAGE   22

    1053              
    1054 000001c4 0006          LRETR     ; [CPU_] 
    1055                      ; return occurs ; [] 
    1056                      .dwattr $C$DW$78, DW_AT_TI_end_file("../src/user.c")
    1057                      .dwattr $C$DW$78, DW_AT_TI_end_line(0x340)
    1058                      .dwattr $C$DW$78, DW_AT_TI_end_column(0x01)
    1059                      .dwendentry
    1060                      .dwendtag $C$DW$78
    1061              
    1062 000001c5               .sect   ".text"
    1063                      .clink
    1064                      .global _USER_getErrorCode
    1065              
    1066              $C$DW$84        .dwtag  DW_TAG_subprogram
    1067                      .dwattr $C$DW$84, DW_AT_name("USER_getErrorCode")
    1068                      .dwattr $C$DW$84, DW_AT_low_pc(_USER_getErrorCode)
    1069                      .dwattr $C$DW$84, DW_AT_high_pc(0x00)
    1070                      .dwattr $C$DW$84, DW_AT_TI_symbol_name("_USER_getErrorCode")
    1071                      .dwattr $C$DW$84, DW_AT_external
    1072                      .dwattr $C$DW$84, DW_AT_type(*$C$DW$T$75)
    1073                      .dwattr $C$DW$84, DW_AT_TI_begin_file("../src/user.c")
    1074                      .dwattr $C$DW$84, DW_AT_TI_begin_line(0x335)
    1075                      .dwattr $C$DW$84, DW_AT_TI_begin_column(0x12)
    1076                      .dwattr $C$DW$84, DW_AT_TI_max_frame_size(-2)
    1077                      .dwpsn  file "../src/user.c",line 822,column 1,is_stmt,address _USER_getErrorCode,isa 0
    1078              
    1079                      .dwfde $C$DW$CIE, _USER_getErrorCode
    1080              $C$DW$85        .dwtag  DW_TAG_formal_parameter
    1081                      .dwattr $C$DW$85, DW_AT_name("pUserParams")
    1082                      .dwattr $C$DW$85, DW_AT_TI_symbol_name("_pUserParams")
    1083                      .dwattr $C$DW$85, DW_AT_type(*$C$DW$T$79)
    1084                      .dwattr $C$DW$85, DW_AT_location[DW_OP_reg12]
    1085              
    1086              
    1087              ;***************************************************************
    1088              ;* FNAME: _USER_getErrorCode            FR SIZE:   0           *
    1089              ;*                                                             *
    1090              ;* FUNCTION ENVIRONMENT                                        *
    1091              ;*                                                             *
    1092              ;* FUNCTION PROPERTIES                                         *
    1093              ;*                            0 Parameter,  0 Auto,  0 SOE     *
    1094              ;***************************************************************
    1095              
    1096              _USER_getErrorCode:
    1097              ;* AR4   assigned to _pUserParams
    1098              $C$DW$86        .dwtag  DW_TAG_variable
    1099                      .dwattr $C$DW$86, DW_AT_name("pUserParams")
    1100                      .dwattr $C$DW$86, DW_AT_TI_symbol_name("_pUserParams")
    1101                      .dwattr $C$DW$86, DW_AT_type(*$C$DW$T$90)
    1102                      .dwattr $C$DW$86, DW_AT_location[DW_OP_reg12]
    1103              
    1104                      .dwcfi  cfa_offset, -2
    1105                      .dwcfi  save_reg_to_mem, 26, 0
    1106                      .dwpsn  file "../src/user.c",line 823,column 3,is_stmt,isa 0
    1107 000001c5 D0AA          MOVB      XAR0,#170             ; [CPU_] |823| 
TMS320C2000 Assembler PC v16.9.6 Sun Jan 28 18:08:28 2018

Tools Copyright (c) 1996-2017 Texas Instruments Incorporated
C:\Users\Zulolo\AppData\Local\Temp\{7EDDBB07-3A94-4F89-8653-32F0EC9EC6F3} PAGE   23

    1108 000001c6 9294          MOV       AL,*+XAR4[AR0]        ; [CPU_] |823| 
    1109              $C$DW$87        .dwtag  DW_TAG_TI_branch
    1110                      .dwattr $C$DW$87, DW_AT_low_pc(0x00)
    1111                      .dwattr $C$DW$87, DW_AT_TI_return
    1112              
    1113 000001c7 0006          LRETR     ; [CPU_] 
    1114                      ; return occurs ; [] 
    1115                      .dwattr $C$DW$84, DW_AT_TI_end_file("../src/user.c")
    1116                      .dwattr $C$DW$84, DW_AT_TI_end_line(0x338)
    1117                      .dwattr $C$DW$84, DW_AT_TI_end_column(0x01)
    1118                      .dwendentry
    1119                      .dwendtag $C$DW$84
    1120              
    1121 000001c8               .sect   ".text"
    1122                      .clink
    1123                      .global _USER_computeTorque_lbin
    1124              
    1125              $C$DW$88        .dwtag  DW_TAG_subprogram
    1126                      .dwattr $C$DW$88, DW_AT_name("USER_computeTorque_lbin")
    1127                      .dwattr $C$DW$88, DW_AT_low_pc(_USER_computeTorque_lbin)
    1128                      .dwattr $C$DW$88, DW_AT_high_pc(0x00)
    1129                      .dwattr $C$DW$88, DW_AT_TI_symbol_name("_USER_computeTorque_lbin")
    1130                      .dwattr $C$DW$88, DW_AT_external
    1131                      .dwattr $C$DW$88, DW_AT_type(*$C$DW$T$20)
    1132                      .dwattr $C$DW$88, DW_AT_TI_begin_file("../src/user.c")
    1133                      .dwattr $C$DW$88, DW_AT_TI_begin_line(0x3e5)
    1134                      .dwattr $C$DW$88, DW_AT_TI_begin_column(0x05)
    1135                      .dwattr $C$DW$88, DW_AT_TI_max_frame_size(-16)
    1136                      .dwpsn  file "../src/user.c",line 998,column 1,is_stmt,address _USER_computeTorque_lbin,isa 0
    1137              
    1138                      .dwfde $C$DW$CIE, _USER_computeTorque_lbin
    1139              $C$DW$89        .dwtag  DW_TAG_formal_parameter
    1140                      .dwattr $C$DW$89, DW_AT_name("handle")
    1141                      .dwattr $C$DW$89, DW_AT_TI_symbol_name("_handle")
    1142                      .dwattr $C$DW$89, DW_AT_type(*$C$DW$T$87)
    1143                      .dwattr $C$DW$89, DW_AT_location[DW_OP_reg12]
    1144              
    1145              $C$DW$90        .dwtag  DW_TAG_formal_parameter
    1146                      .dwattr $C$DW$90, DW_AT_name("torque_Flux_sf")
    1147                      .dwattr $C$DW$90, DW_AT_TI_symbol_name("_torque_Flux_sf")
    1148                      .dwattr $C$DW$90, DW_AT_type(*$C$DW$T$20)
    1149                      .dwattr $C$DW$90, DW_AT_location[DW_OP_reg0]
    1150              
    1151              $C$DW$91        .dwtag  DW_TAG_formal_parameter
    1152                      .dwattr $C$DW$91, DW_AT_name("torque_Ls_sf")
    1153                      .dwattr $C$DW$91, DW_AT_TI_symbol_name("_torque_Ls_sf")
    1154                      .dwattr $C$DW$91, DW_AT_type(*$C$DW$T$20)
    1155                      .dwattr $C$DW$91, DW_AT_location[DW_OP_breg20 -18]
    1156              
    1157              
    1158              ;***************************************************************
    1159              ;* FNAME: _USER_computeTorque_lbin      FR SIZE:  14           *
    1160              ;*                                                             *
    1161              ;* FUNCTION ENVIRONMENT                                        *
    1162              ;*                                                             *
TMS320C2000 Assembler PC v16.9.6 Sun Jan 28 18:08:28 2018

Tools Copyright (c) 1996-2017 Texas Instruments Incorporated
C:\Users\Zulolo\AppData\Local\Temp\{7EDDBB07-3A94-4F89-8653-32F0EC9EC6F3} PAGE   24

    1163              ;* FUNCTION PROPERTIES                                         *
    1164              ;*                            0 Parameter,  8 Auto,  6 SOE     *
    1165              ;***************************************************************
    1166              
    1167              _USER_computeTorque_lbin:
    1168              ;* AR1   assigned to _handle
    1169              $C$DW$92        .dwtag  DW_TAG_variable
    1170                      .dwattr $C$DW$92, DW_AT_name("handle")
    1171                      .dwattr $C$DW$92, DW_AT_TI_symbol_name("_handle")
    1172                      .dwattr $C$DW$92, DW_AT_type(*$C$DW$T$88)
    1173                      .dwattr $C$DW$92, DW_AT_location[DW_OP_reg6]
    1174              
    1175              $C$DW$93        .dwtag  DW_TAG_variable
    1176                      .dwattr $C$DW$93, DW_AT_name("torque_Flux_sf")
    1177                      .dwattr $C$DW$93, DW_AT_TI_symbol_name("_torque_Flux_sf")
    1178                      .dwattr $C$DW$93, DW_AT_type(*$C$DW$T$93)
    1179                      .dwattr $C$DW$93, DW_AT_location[DW_OP_breg20 -2]
    1180              
    1181              $C$DW$94        .dwtag  DW_TAG_variable
    1182                      .dwattr $C$DW$94, DW_AT_name("torque_Ls_sf")
    1183                      .dwattr $C$DW$94, DW_AT_TI_symbol_name("_torque_Ls_sf")
    1184                      .dwattr $C$DW$94, DW_AT_type(*$C$DW$T$93)
    1185                      .dwattr $C$DW$94, DW_AT_location[DW_OP_breg20 -4]
    1186              
    1187              $C$DW$95        .dwtag  DW_TAG_variable
    1188                      .dwattr $C$DW$95, DW_AT_name("Flux_pu")
    1189                      .dwattr $C$DW$95, DW_AT_TI_symbol_name("_Flux_pu")
    1190                      .dwattr $C$DW$95, DW_AT_type(*$C$DW$T$20)
    1191                      .dwattr $C$DW$95, DW_AT_location[DW_OP_breg20 -6]
    1192              
    1193              ;* AR3   assigned to _Id_pu
    1194              $C$DW$96        .dwtag  DW_TAG_variable
    1195                      .dwattr $C$DW$96, DW_AT_name("Id_pu")
    1196                      .dwattr $C$DW$96, DW_AT_TI_symbol_name("_Id_pu")
    1197                      .dwattr $C$DW$96, DW_AT_type(*$C$DW$T$20)
    1198                      .dwattr $C$DW$96, DW_AT_location[DW_OP_reg10]
    1199              
    1200              ;* AR2   assigned to _Iq_pu
    1201              $C$DW$97        .dwtag  DW_TAG_variable
    1202                      .dwattr $C$DW$97, DW_AT_name("Iq_pu")
    1203                      .dwattr $C$DW$97, DW_AT_TI_symbol_name("_Iq_pu")
    1204                      .dwattr $C$DW$97, DW_AT_type(*$C$DW$T$20)
    1205                      .dwattr $C$DW$97, DW_AT_location[DW_OP_reg8]
    1206              
    1207              ;* AR7   assigned to _Ld_minus_Lq_pu
    1208              $C$DW$98        .dwtag  DW_TAG_variable
    1209                      .dwattr $C$DW$98, DW_AT_name("Ld_minus_Lq_pu")
    1210                      .dwattr $C$DW$98, DW_AT_TI_symbol_name("_Ld_minus_Lq_pu")
    1211                      .dwattr $C$DW$98, DW_AT_type(*$C$DW$T$20)
    1212                      .dwattr $C$DW$98, DW_AT_location[DW_OP_reg18]
    1213              
    1214                      .dwcfi  cfa_offset, -2
    1215                      .dwcfi  save_reg_to_mem, 26, 0
    1216 000001c8 B2BD          MOVL      *SP++,XAR1            ; [CPU_] 
    1217                      .dwcfi  save_reg_to_mem, 7, 2
TMS320C2000 Assembler PC v16.9.6 Sun Jan 28 18:08:28 2018

Tools Copyright (c) 1996-2017 Texas Instruments Incorporated
C:\Users\Zulolo\AppData\Local\Temp\{7EDDBB07-3A94-4F89-8653-32F0EC9EC6F3} PAGE   25

    1218                      .dwcfi  cfa_offset, -4
    1219 000001c9 AABD          MOVL      *SP++,XAR2            ; [CPU_] 
    1220                      .dwcfi  save_reg_to_mem, 9, 4
    1221                      .dwcfi  cfa_offset, -6
    1222 000001ca A2BD          MOVL      *SP++,XAR3            ; [CPU_] 
    1223                      .dwcfi  save_reg_to_mem, 11, 6
    1224                      .dwcfi  cfa_offset, -8
    1225 000001cb FE08          ADDB      SP,#8                 ; [CPU_U] 
    1226                      .dwcfi  cfa_offset, -16
    1227                      .dwpsn  file "../src/user.c",line 1001,column 15,is_stmt,isa 0
    1228 000001cc D018          MOVB      XAR0,#24              ; [CPU_] |1001| 
    1229                      .dwpsn  file "../src/user.c",line 998,column 1,is_stmt,isa 0
    1230 000001cd 8BA4          MOVL      XAR1,XAR4             ; [CPU_] |998| 
    1231 000001ce 1E42          MOVL      *-SP[2],ACC           ; [CPU_] |998| 
    1232 000001cf 0652          MOVL      ACC,*-SP[18]          ; [CPU_] |998| 
    1233 000001d0 1E44          MOVL      *-SP[4],ACC           ; [CPU_] |998| 
    1234                      .dwpsn  file "../src/user.c",line 1001,column 15,is_stmt,isa 0
    1235 000001d1 8A91          MOVL      XAR4,*+XAR1[AR0]      ; [CPU_] |1001| 
    1236              $C$DW$99        .dwtag  DW_TAG_TI_branch
    1237                      .dwattr $C$DW$99, DW_AT_low_pc(0x00)
    1238                      .dwattr $C$DW$99, DW_AT_name("_EST_getFlux_pu")
    1239                      .dwattr $C$DW$99, DW_AT_TI_call
    1240              
    1241 000001d2 7640!         LCR       #_EST_getFlux_pu      ; [CPU_] |1001| 
         000001d3 0000 
    1242                      ; call occurs [#_EST_getFlux_pu] ; [] |1001| 
    1243                      .dwpsn  file "D:/ti/motorware/motorware_1_01_00_18/sw/modules/pid/src/32b/pid.h",line 106,column 3,is
    1244 000001d4 D020          MOVB      XAR0,#32              ; [CPU_] |106| 
    1245                      .dwpsn  file "../src/user.c",line 1001,column 15,is_stmt,isa 0
    1246 000001d5 1E46          MOVL      *-SP[6],ACC           ; [CPU_] |1001| 
    1247                      .dwpsn  file "D:/ti/motorware/motorware_1_01_00_18/sw/modules/pid/src/32b/pid.h",line 106,column 3,is
    1248 000001d6 020A          MOVB      ACC,#10               ; [CPU_] |106| 
    1249 000001d7 0791          ADDL      ACC,*+XAR1[AR0]       ; [CPU_] |106| 
    1250 000001d8 8AA9          MOVL      XAR4,ACC              ; [CPU_] |106| 
    1251 000001d9 D032          MOVB      XAR0,#50              ; [CPU_] |106| 
    1252 000001da 020A          MOVB      ACC,#10               ; [CPU_] |106| 
    1253 000001db 82C4          MOVL      XAR3,*+XAR4[0]        ; [CPU_] |106| 
    1254 000001dc 0791          ADDL      ACC,*+XAR1[AR0]       ; [CPU_] |106| 
    1255 000001dd 8AA9          MOVL      XAR4,ACC              ; [CPU_] |106| 
    1256                      .dwpsn  file "../src/user.c",line 1004,column 22,is_stmt,isa 0
    1257 000001de D018          MOVB      XAR0,#24              ; [CPU_] |1004| 
    1258                      .dwpsn  file "D:/ti/motorware/motorware_1_01_00_18/sw/modules/pid/src/32b/pid.h",line 106,column 3,is
    1259 000001df 86C4          MOVL      XAR2,*+XAR4[0]        ; [CPU_] |106| 
    1260                      .dwpsn  file "../src/user.c",line 1004,column 22,is_stmt,isa 0
    1261 000001e0 8A91          MOVL      XAR4,*+XAR1[AR0]      ; [CPU_] |1004| 
    1262              $C$DW$100       .dwtag  DW_TAG_TI_branch
    1263                      .dwattr $C$DW$100, DW_AT_low_pc(0x00)
    1264                      .dwattr $C$DW$100, DW_AT_name("_EST_getLs_q_pu")
    1265                      .dwattr $C$DW$100, DW_AT_TI_call
    1266              
    1267 000001e1 7640!         LCR       #_EST_getLs_q_pu      ; [CPU_] |1004| 
         000001e2 0000 
    1268                      ; call occurs [#_EST_getLs_q_pu] ; [] |1004| 
    1269 000001e3 D018          MOVB      XAR0,#24              ; [CPU_] |1004| 
    1270 000001e4 1E48          MOVL      *-SP[8],ACC           ; [CPU_] |1004| 
TMS320C2000 Assembler PC v16.9.6 Sun Jan 28 18:08:28 2018

Tools Copyright (c) 1996-2017 Texas Instruments Incorporated
C:\Users\Zulolo\AppData\Local\Temp\{7EDDBB07-3A94-4F89-8653-32F0EC9EC6F3} PAGE   26

    1271 000001e5 8A91          MOVL      XAR4,*+XAR1[AR0]      ; [CPU_] |1004| 
    1272              $C$DW$101       .dwtag  DW_TAG_TI_branch
    1273                      .dwattr $C$DW$101, DW_AT_low_pc(0x00)
    1274                      .dwattr $C$DW$101, DW_AT_name("_EST_getLs_d_pu")
    1275                      .dwattr $C$DW$101, DW_AT_TI_call
    1276              
    1277 000001e6 7640!         LCR       #_EST_getLs_d_pu      ; [CPU_] |1004| 
         000001e7 0000 
    1278                      ; call occurs [#_EST_getLs_d_pu] ; [] |1004| 
    1279 000001e8 C448          MOVL      XAR6,*-SP[8]          ; [CPU_] |1004| 
    1280 000001e9 3B01          SETC      SXM                   ; [CPU_] 
    1281 000001ea 8746          MOVL      XT,*-SP[6]            ; [CPU_] |1004| 
    1282 000001eb 03A6          SUBL      ACC,XAR6              ; [CPU_] |1004| 
    1283                      .dwpsn  file "../src/user.c",line 1009,column 3,is_stmt,isa 0
    1284 000001ec 5605          IMPYL     P,XT,XAR2             ; [CPU_] |1009| 
         000001ed 00A2 
    1285                      .dwpsn  file "../src/user.c",line 1004,column 22,is_stmt,isa 0
    1286 000001ee FF45          SFR       ACC,6                 ; [CPU_] |1004| 
    1287                      .dwpsn  file "../src/user.c",line 1009,column 3,is_stmt,isa 0
    1288 000001ef C442          MOVL      XAR6,*-SP[2]          ; [CPU_] |1009| 
    1289                      .dwpsn  file "../src/user.c",line 1004,column 22,is_stmt,isa 0
    1290 000001f0 1EA7          MOVL      XAR7,ACC              ; [CPU_] |1004| 
    1291                      .dwpsn  file "../src/user.c",line 1009,column 3,is_stmt,isa 0
    1292 000001f1 5663          QMPYL     ACC,XT,XAR2           ; [CPU_] |1009| 
         000001f2 00A2 
    1293 000001f3 56A7          LSL64     ACC:P,#8              ; [CPU_] |1009| 
    1294 000001f4 1EAC          MOVL      XT,ACC                ; [CPU_] |1009| 
    1295 000001f5 0642          MOVL      ACC,*-SP[2]           ; [CPU_] |1009| 
    1296 000001f6 5605          IMPYL     P,XT,XAR6             ; [CPU_] |1009| 
         000001f7 00A6 
    1297 000001f8 5663          QMPYL     ACC,XT,ACC            ; [CPU_] |1009| 
         000001f9 00A9 
    1298 000001fa 56A7          LSL64     ACC:P,#8              ; [CPU_] |1009| 
    1299 000001fb 87A7          MOVL      XT,XAR7               ; [CPU_] |1009| 
    1300 000001fc 1EA6          MOVL      XAR6,ACC              ; [CPU_] |1009| 
    1301 000001fd C544          MOVL      XAR7,*-SP[4]          ; [CPU_] |1009| 
    1302 000001fe 5605          IMPYL     P,XT,XAR3             ; [CPU_] |1009| 
         000001ff 00A3 
    1303 00000200 5663          QMPYL     ACC,XT,XAR3           ; [CPU_] |1009| 
         00000201 00A3 
    1304 00000202 56A7          LSL64     ACC:P,#8              ; [CPU_] |1009| 
    1305 00000203 1EAC          MOVL      XT,ACC                ; [CPU_] |1009| 
    1306 00000204 5605          IMPYL     P,XT,XAR2             ; [CPU_] |1009| 
         00000205 00A2 
    1307 00000206 5663          QMPYL     ACC,XT,XAR2           ; [CPU_] |1009| 
         00000207 00A2 
    1308 00000208 56A7          LSL64     ACC:P,#8              ; [CPU_] |1009| 
    1309 00000209 1EAC          MOVL      XT,ACC                ; [CPU_] |1009| 
    1310 0000020a 0644          MOVL      ACC,*-SP[4]           ; [CPU_] |1009| 
    1311 0000020b 5605          IMPYL     P,XT,XAR7             ; [CPU_] |1009| 
         0000020c 00A7 
    1312 0000020d 5663          QMPYL     ACC,XT,ACC            ; [CPU_] |1009| 
         0000020e 00A9 
    1313 0000020f 56A7          LSL64     ACC:P,#8              ; [CPU_] |1009| 
    1314 00000210 07A6          ADDL      ACC,XAR6              ; [CPU_] |1009| 
TMS320C2000 Assembler PC v16.9.6 Sun Jan 28 18:08:28 2018

Tools Copyright (c) 1996-2017 Texas Instruments Incorporated
C:\Users\Zulolo\AppData\Local\Temp\{7EDDBB07-3A94-4F89-8653-32F0EC9EC6F3} PAGE   27

    1315 00000211 1EAC          MOVL      XT,ACC                ; [CPU_] |1009| 
    1316 00000212 FE88          SUBB      SP,#8                 ; [CPU_U] 
    1317                      .dwcfi  cfa_offset, -8
    1318 00000213 28A9          MOV       AL,#51840             ; [CPU_] |1009| 
         00000214 CA80 
    1319 00000215 28A8          MOV       AH,#2265              ; [CPU_] |1009| 
         00000216 08D9 
    1320 00000217 5605          IMPYL     P,XT,ACC              ; [CPU_] |1009| 
         00000218 00A9 
    1321 00000219 82BE          MOVL      XAR3,*--SP            ; [CPU_] 
    1322                      .dwcfi  cfa_offset, -6
    1323                      .dwcfi  restore_reg, 11
    1324 0000021a 5663          QMPYL     ACC,XT,ACC            ; [CPU_] |1009| 
         0000021b 00A9 
    1325 0000021c 56A7          LSL64     ACC:P,#8              ; [CPU_] |1009| 
    1326 0000021d 86BE          MOVL      XAR2,*--SP            ; [CPU_] 
    1327                      .dwcfi  cfa_offset, -4
    1328                      .dwcfi  restore_reg, 9
    1329 0000021e 8BBE          MOVL      XAR1,*--SP            ; [CPU_] 
    1330                      .dwcfi  cfa_offset, -2
    1331                      .dwcfi  restore_reg, 7
    1332              $C$DW$102       .dwtag  DW_TAG_TI_branch
    1333                      .dwattr $C$DW$102, DW_AT_low_pc(0x00)
    1334                      .dwattr $C$DW$102, DW_AT_TI_return
    1335              
    1336 0000021f 0006          LRETR     ; [CPU_] 
    1337                      ; return occurs ; [] 
    1338                      .dwattr $C$DW$88, DW_AT_TI_end_file("../src/user.c")
    1339                      .dwattr $C$DW$88, DW_AT_TI_end_line(0x3f2)
    1340                      .dwattr $C$DW$88, DW_AT_TI_end_column(0x01)
    1341                      .dwendentry
    1342                      .dwendtag $C$DW$88
    1343              
    1344 00000220               .sect   ".text"
    1345                      .clink
    1346                      .global _USER_computeTorque_Nm
    1347              
    1348              $C$DW$103       .dwtag  DW_TAG_subprogram
    1349                      .dwattr $C$DW$103, DW_AT_name("USER_computeTorque_Nm")
    1350                      .dwattr $C$DW$103, DW_AT_low_pc(_USER_computeTorque_Nm)
    1351                      .dwattr $C$DW$103, DW_AT_high_pc(0x00)
    1352                      .dwattr $C$DW$103, DW_AT_TI_symbol_name("_USER_computeTorque_Nm")
    1353                      .dwattr $C$DW$103, DW_AT_external
    1354                      .dwattr $C$DW$103, DW_AT_type(*$C$DW$T$20)
    1355                      .dwattr $C$DW$103, DW_AT_TI_begin_file("../src/user.c")
    1356                      .dwattr $C$DW$103, DW_AT_TI_begin_line(0x3d3)
    1357                      .dwattr $C$DW$103, DW_AT_TI_begin_column(0x05)
    1358                      .dwattr $C$DW$103, DW_AT_TI_max_frame_size(-16)
    1359                      .dwpsn  file "../src/user.c",line 980,column 1,is_stmt,address _USER_computeTorque_Nm,isa 0
    1360              
    1361                      .dwfde $C$DW$CIE, _USER_computeTorque_Nm
    1362              $C$DW$104       .dwtag  DW_TAG_formal_parameter
    1363                      .dwattr $C$DW$104, DW_AT_name("handle")
    1364                      .dwattr $C$DW$104, DW_AT_TI_symbol_name("_handle")
    1365                      .dwattr $C$DW$104, DW_AT_type(*$C$DW$T$87)
TMS320C2000 Assembler PC v16.9.6 Sun Jan 28 18:08:28 2018

Tools Copyright (c) 1996-2017 Texas Instruments Incorporated
C:\Users\Zulolo\AppData\Local\Temp\{7EDDBB07-3A94-4F89-8653-32F0EC9EC6F3} PAGE   28

    1366                      .dwattr $C$DW$104, DW_AT_location[DW_OP_reg12]
    1367              
    1368              $C$DW$105       .dwtag  DW_TAG_formal_parameter
    1369                      .dwattr $C$DW$105, DW_AT_name("torque_Flux_sf")
    1370                      .dwattr $C$DW$105, DW_AT_TI_symbol_name("_torque_Flux_sf")
    1371                      .dwattr $C$DW$105, DW_AT_type(*$C$DW$T$20)
    1372                      .dwattr $C$DW$105, DW_AT_location[DW_OP_reg0]
    1373              
    1374              $C$DW$106       .dwtag  DW_TAG_formal_parameter
    1375                      .dwattr $C$DW$106, DW_AT_name("torque_Ls_sf")
    1376                      .dwattr $C$DW$106, DW_AT_TI_symbol_name("_torque_Ls_sf")
    1377                      .dwattr $C$DW$106, DW_AT_type(*$C$DW$T$20)
    1378                      .dwattr $C$DW$106, DW_AT_location[DW_OP_breg20 -18]
    1379              
    1380              
    1381              ;***************************************************************
    1382              ;* FNAME: _USER_computeTorque_Nm        FR SIZE:  14           *
    1383              ;*                                                             *
    1384              ;* FUNCTION ENVIRONMENT                                        *
    1385              ;*                                                             *
    1386              ;* FUNCTION PROPERTIES                                         *
    1387              ;*                            0 Parameter,  8 Auto,  6 SOE     *
    1388              ;***************************************************************
    1389              
    1390              _USER_computeTorque_Nm:
    1391              ;* AR1   assigned to _handle
    1392              $C$DW$107       .dwtag  DW_TAG_variable
    1393                      .dwattr $C$DW$107, DW_AT_name("handle")
    1394                      .dwattr $C$DW$107, DW_AT_TI_symbol_name("_handle")
    1395                      .dwattr $C$DW$107, DW_AT_type(*$C$DW$T$88)
    1396                      .dwattr $C$DW$107, DW_AT_location[DW_OP_reg6]
    1397              
    1398              $C$DW$108       .dwtag  DW_TAG_variable
    1399                      .dwattr $C$DW$108, DW_AT_name("torque_Flux_sf")
    1400                      .dwattr $C$DW$108, DW_AT_TI_symbol_name("_torque_Flux_sf")
    1401                      .dwattr $C$DW$108, DW_AT_type(*$C$DW$T$93)
    1402                      .dwattr $C$DW$108, DW_AT_location[DW_OP_breg20 -2]
    1403              
    1404              $C$DW$109       .dwtag  DW_TAG_variable
    1405                      .dwattr $C$DW$109, DW_AT_name("torque_Ls_sf")
    1406                      .dwattr $C$DW$109, DW_AT_TI_symbol_name("_torque_Ls_sf")
    1407                      .dwattr $C$DW$109, DW_AT_type(*$C$DW$T$93)
    1408                      .dwattr $C$DW$109, DW_AT_location[DW_OP_breg20 -4]
    1409              
    1410              $C$DW$110       .dwtag  DW_TAG_variable
    1411                      .dwattr $C$DW$110, DW_AT_name("Flux_pu")
    1412                      .dwattr $C$DW$110, DW_AT_TI_symbol_name("_Flux_pu")
    1413                      .dwattr $C$DW$110, DW_AT_type(*$C$DW$T$20)
    1414                      .dwattr $C$DW$110, DW_AT_location[DW_OP_breg20 -6]
    1415              
    1416              ;* AR3   assigned to _Id_pu
    1417              $C$DW$111       .dwtag  DW_TAG_variable
    1418                      .dwattr $C$DW$111, DW_AT_name("Id_pu")
    1419                      .dwattr $C$DW$111, DW_AT_TI_symbol_name("_Id_pu")
    1420                      .dwattr $C$DW$111, DW_AT_type(*$C$DW$T$20)
TMS320C2000 Assembler PC v16.9.6 Sun Jan 28 18:08:28 2018

Tools Copyright (c) 1996-2017 Texas Instruments Incorporated
C:\Users\Zulolo\AppData\Local\Temp\{7EDDBB07-3A94-4F89-8653-32F0EC9EC6F3} PAGE   29

    1421                      .dwattr $C$DW$111, DW_AT_location[DW_OP_reg10]
    1422              
    1423              ;* AR2   assigned to _Iq_pu
    1424              $C$DW$112       .dwtag  DW_TAG_variable
    1425                      .dwattr $C$DW$112, DW_AT_name("Iq_pu")
    1426                      .dwattr $C$DW$112, DW_AT_TI_symbol_name("_Iq_pu")
    1427                      .dwattr $C$DW$112, DW_AT_type(*$C$DW$T$20)
    1428                      .dwattr $C$DW$112, DW_AT_location[DW_OP_reg8]
    1429              
    1430              ;* AR7   assigned to _Ld_minus_Lq_pu
    1431              $C$DW$113       .dwtag  DW_TAG_variable
    1432                      .dwattr $C$DW$113, DW_AT_name("Ld_minus_Lq_pu")
    1433                      .dwattr $C$DW$113, DW_AT_TI_symbol_name("_Ld_minus_Lq_pu")
    1434                      .dwattr $C$DW$113, DW_AT_type(*$C$DW$T$20)
    1435                      .dwattr $C$DW$113, DW_AT_location[DW_OP_reg18]
    1436              
    1437                      .dwcfi  cfa_offset, -2
    1438                      .dwcfi  save_reg_to_mem, 26, 0
    1439 00000220 B2BD          MOVL      *SP++,XAR1            ; [CPU_] 
    1440                      .dwcfi  save_reg_to_mem, 7, 2
    1441                      .dwcfi  cfa_offset, -4
    1442 00000221 AABD          MOVL      *SP++,XAR2            ; [CPU_] 
    1443                      .dwcfi  save_reg_to_mem, 9, 4
    1444                      .dwcfi  cfa_offset, -6
    1445 00000222 A2BD          MOVL      *SP++,XAR3            ; [CPU_] 
    1446                      .dwcfi  save_reg_to_mem, 11, 6
    1447                      .dwcfi  cfa_offset, -8
    1448 00000223 FE08          ADDB      SP,#8                 ; [CPU_U] 
    1449                      .dwcfi  cfa_offset, -16
    1450                      .dwpsn  file "../src/user.c",line 983,column 15,is_stmt,isa 0
    1451 00000224 D018          MOVB      XAR0,#24              ; [CPU_] |983| 
    1452                      .dwpsn  file "../src/user.c",line 980,column 1,is_stmt,isa 0
    1453 00000225 8BA4          MOVL      XAR1,XAR4             ; [CPU_] |980| 
    1454 00000226 1E42          MOVL      *-SP[2],ACC           ; [CPU_] |980| 
    1455 00000227 0652          MOVL      ACC,*-SP[18]          ; [CPU_] |980| 
    1456 00000228 1E44          MOVL      *-SP[4],ACC           ; [CPU_] |980| 
    1457                      .dwpsn  file "../src/user.c",line 983,column 15,is_stmt,isa 0
    1458 00000229 8A91          MOVL      XAR4,*+XAR1[AR0]      ; [CPU_] |983| 
    1459              $C$DW$114       .dwtag  DW_TAG_TI_branch
    1460                      .dwattr $C$DW$114, DW_AT_low_pc(0x00)
    1461                      .dwattr $C$DW$114, DW_AT_name("_EST_getFlux_pu")
    1462                      .dwattr $C$DW$114, DW_AT_TI_call
    1463              
    1464 0000022a 7640!         LCR       #_EST_getFlux_pu      ; [CPU_] |983| 
         0000022b 0000 
    1465                      ; call occurs [#_EST_getFlux_pu] ; [] |983| 
    1466                      .dwpsn  file "D:/ti/motorware/motorware_1_01_00_18/sw/modules/pid/src/32b/pid.h",line 106,column 3,is
    1467 0000022c D020          MOVB      XAR0,#32              ; [CPU_] |106| 
    1468                      .dwpsn  file "../src/user.c",line 983,column 15,is_stmt,isa 0
    1469 0000022d 1E46          MOVL      *-SP[6],ACC           ; [CPU_] |983| 
    1470                      .dwpsn  file "D:/ti/motorware/motorware_1_01_00_18/sw/modules/pid/src/32b/pid.h",line 106,column 3,is
    1471 0000022e 020A          MOVB      ACC,#10               ; [CPU_] |106| 
    1472 0000022f 0791          ADDL      ACC,*+XAR1[AR0]       ; [CPU_] |106| 
    1473 00000230 8AA9          MOVL      XAR4,ACC              ; [CPU_] |106| 
    1474 00000231 D032          MOVB      XAR0,#50              ; [CPU_] |106| 
TMS320C2000 Assembler PC v16.9.6 Sun Jan 28 18:08:28 2018

Tools Copyright (c) 1996-2017 Texas Instruments Incorporated
C:\Users\Zulolo\AppData\Local\Temp\{7EDDBB07-3A94-4F89-8653-32F0EC9EC6F3} PAGE   30

    1475 00000232 020A          MOVB      ACC,#10               ; [CPU_] |106| 
    1476 00000233 82C4          MOVL      XAR3,*+XAR4[0]        ; [CPU_] |106| 
    1477 00000234 0791          ADDL      ACC,*+XAR1[AR0]       ; [CPU_] |106| 
    1478 00000235 8AA9          MOVL      XAR4,ACC              ; [CPU_] |106| 
    1479                      .dwpsn  file "../src/user.c",line 986,column 22,is_stmt,isa 0
    1480 00000236 D018          MOVB      XAR0,#24              ; [CPU_] |986| 
    1481                      .dwpsn  file "D:/ti/motorware/motorware_1_01_00_18/sw/modules/pid/src/32b/pid.h",line 106,column 3,is
    1482 00000237 86C4          MOVL      XAR2,*+XAR4[0]        ; [CPU_] |106| 
    1483                      .dwpsn  file "../src/user.c",line 986,column 22,is_stmt,isa 0
    1484 00000238 8A91          MOVL      XAR4,*+XAR1[AR0]      ; [CPU_] |986| 
    1485              $C$DW$115       .dwtag  DW_TAG_TI_branch
    1486                      .dwattr $C$DW$115, DW_AT_low_pc(0x00)
    1487                      .dwattr $C$DW$115, DW_AT_name("_EST_getLs_q_pu")
    1488                      .dwattr $C$DW$115, DW_AT_TI_call
    1489              
    1490 00000239 7640!         LCR       #_EST_getLs_q_pu      ; [CPU_] |986| 
         0000023a 0000 
    1491                      ; call occurs [#_EST_getLs_q_pu] ; [] |986| 
    1492 0000023b D018          MOVB      XAR0,#24              ; [CPU_] |986| 
    1493 0000023c 1E48          MOVL      *-SP[8],ACC           ; [CPU_] |986| 
    1494 0000023d 8A91          MOVL      XAR4,*+XAR1[AR0]      ; [CPU_] |986| 
    1495              $C$DW$116       .dwtag  DW_TAG_TI_branch
    1496                      .dwattr $C$DW$116, DW_AT_low_pc(0x00)
    1497                      .dwattr $C$DW$116, DW_AT_name("_EST_getLs_d_pu")
    1498                      .dwattr $C$DW$116, DW_AT_TI_call
    1499              
    1500 0000023e 7640!         LCR       #_EST_getLs_d_pu      ; [CPU_] |986| 
         0000023f 0000 
    1501                      ; call occurs [#_EST_getLs_d_pu] ; [] |986| 
    1502 00000240 C448          MOVL      XAR6,*-SP[8]          ; [CPU_] |986| 
    1503 00000241 3B01          SETC      SXM                   ; [CPU_] 
    1504 00000242 8746          MOVL      XT,*-SP[6]            ; [CPU_] |986| 
    1505 00000243 03A6          SUBL      ACC,XAR6              ; [CPU_] |986| 
    1506                      .dwpsn  file "../src/user.c",line 991,column 3,is_stmt,isa 0
    1507 00000244 5605          IMPYL     P,XT,XAR2             ; [CPU_] |991| 
         00000245 00A2 
    1508                      .dwpsn  file "../src/user.c",line 986,column 22,is_stmt,isa 0
    1509 00000246 FF45          SFR       ACC,6                 ; [CPU_] |986| 
    1510                      .dwpsn  file "../src/user.c",line 991,column 3,is_stmt,isa 0
    1511 00000247 C442          MOVL      XAR6,*-SP[2]          ; [CPU_] |991| 
    1512                      .dwpsn  file "../src/user.c",line 986,column 22,is_stmt,isa 0
    1513 00000248 1EA7          MOVL      XAR7,ACC              ; [CPU_] |986| 
    1514                      .dwpsn  file "../src/user.c",line 991,column 3,is_stmt,isa 0
    1515 00000249 5663          QMPYL     ACC,XT,XAR2           ; [CPU_] |991| 
         0000024a 00A2 
    1516 0000024b 56A7          LSL64     ACC:P,#8              ; [CPU_] |991| 
    1517 0000024c 1EAC          MOVL      XT,ACC                ; [CPU_] |991| 
    1518 0000024d 0642          MOVL      ACC,*-SP[2]           ; [CPU_] |991| 
    1519 0000024e 5605          IMPYL     P,XT,XAR6             ; [CPU_] |991| 
         0000024f 00A6 
    1520 00000250 5663          QMPYL     ACC,XT,ACC            ; [CPU_] |991| 
         00000251 00A9 
    1521 00000252 56A7          LSL64     ACC:P,#8              ; [CPU_] |991| 
    1522 00000253 87A7          MOVL      XT,XAR7               ; [CPU_] |991| 
    1523 00000254 1EA6          MOVL      XAR6,ACC              ; [CPU_] |991| 
TMS320C2000 Assembler PC v16.9.6 Sun Jan 28 18:08:28 2018

Tools Copyright (c) 1996-2017 Texas Instruments Incorporated
C:\Users\Zulolo\AppData\Local\Temp\{7EDDBB07-3A94-4F89-8653-32F0EC9EC6F3} PAGE   31

    1524 00000255 C544          MOVL      XAR7,*-SP[4]          ; [CPU_] |991| 
    1525 00000256 5605          IMPYL     P,XT,XAR3             ; [CPU_] |991| 
         00000257 00A3 
    1526 00000258 5663          QMPYL     ACC,XT,XAR3           ; [CPU_] |991| 
         00000259 00A3 
    1527 0000025a 56A7          LSL64     ACC:P,#8              ; [CPU_] |991| 
    1528 0000025b 1EAC          MOVL      XT,ACC                ; [CPU_] |991| 
    1529 0000025c FE88          SUBB      SP,#8                 ; [CPU_U] 
    1530                      .dwcfi  cfa_offset, -8
    1531 0000025d 5605          IMPYL     P,XT,XAR2             ; [CPU_] |991| 
         0000025e 00A2 
    1532 0000025f 5663          QMPYL     ACC,XT,XAR2           ; [CPU_] |991| 
         00000260 00A2 
    1533 00000261 56A7          LSL64     ACC:P,#8              ; [CPU_] |991| 
    1534 00000262 82BE          MOVL      XAR3,*--SP            ; [CPU_] 
    1535                      .dwcfi  cfa_offset, -6
    1536                      .dwcfi  restore_reg, 11
    1537 00000263 1EAC          MOVL      XT,ACC                ; [CPU_] |991| 
    1538 00000264 5605          IMPYL     P,XT,XAR7             ; [CPU_] |991| 
         00000265 00A7 
    1539 00000266 5663          QMPYL     ACC,XT,XAR7           ; [CPU_] |991| 
         00000267 00A7 
    1540 00000268 86BE          MOVL      XAR2,*--SP            ; [CPU_] 
    1541                      .dwcfi  cfa_offset, -4
    1542                      .dwcfi  restore_reg, 9
    1543 00000269 56A7          LSL64     ACC:P,#8              ; [CPU_] |991| 
    1544 0000026a 07A6          ADDL      ACC,XAR6              ; [CPU_] |991| 
    1545 0000026b 8BBE          MOVL      XAR1,*--SP            ; [CPU_] 
    1546                      .dwcfi  cfa_offset, -2
    1547                      .dwcfi  restore_reg, 7
    1548              $C$DW$117       .dwtag  DW_TAG_TI_branch
    1549                      .dwattr $C$DW$117, DW_AT_low_pc(0x00)
    1550                      .dwattr $C$DW$117, DW_AT_TI_return
    1551              
    1552 0000026c 0006          LRETR     ; [CPU_] 
    1553                      ; return occurs ; [] 
    1554                      .dwattr $C$DW$103, DW_AT_TI_end_file("../src/user.c")
    1555                      .dwattr $C$DW$103, DW_AT_TI_end_line(0x3e0)
    1556                      .dwattr $C$DW$103, DW_AT_TI_end_column(0x01)
    1557                      .dwendentry
    1558                      .dwendtag $C$DW$103
    1559              
    1560 0000026d               .sect   ".text"
    1561                      .clink
    1562                      .global _USER_computeTorque_Ls_Id_Iq_pu_to_Nm_sf
    1563              
    1564              $C$DW$118       .dwtag  DW_TAG_subprogram
    1565                      .dwattr $C$DW$118, DW_AT_name("USER_computeTorque_Ls_Id_Iq_pu_to_Nm_sf")
    1566                      .dwattr $C$DW$118, DW_AT_low_pc(_USER_computeTorque_Ls_Id_Iq_pu_to_Nm_sf)
    1567                      .dwattr $C$DW$118, DW_AT_high_pc(0x00)
    1568                      .dwattr $C$DW$118, DW_AT_TI_symbol_name("_USER_computeTorque_Ls_Id_Iq_pu_to_Nm_sf")
    1569                      .dwattr $C$DW$118, DW_AT_external
    1570                      .dwattr $C$DW$118, DW_AT_type(*$C$DW$T$20)
    1571                      .dwattr $C$DW$118, DW_AT_TI_begin_file("../src/user.c")
    1572                      .dwattr $C$DW$118, DW_AT_TI_begin_line(0x398)
TMS320C2000 Assembler PC v16.9.6 Sun Jan 28 18:08:28 2018

Tools Copyright (c) 1996-2017 Texas Instruments Incorporated
C:\Users\Zulolo\AppData\Local\Temp\{7EDDBB07-3A94-4F89-8653-32F0EC9EC6F3} PAGE   32

    1573                      .dwattr $C$DW$118, DW_AT_TI_begin_column(0x05)
    1574                      .dwattr $C$DW$118, DW_AT_TI_max_frame_size(-14)
    1575                      .dwpsn  file "../src/user.c",line 921,column 1,is_stmt,address _USER_computeTorque_Ls_Id_Iq_pu_to_Nm_
    1576              
    1577                      .dwfde $C$DW$CIE, _USER_computeTorque_Ls_Id_Iq_pu_to_Nm_sf
    1578              
    1579              ;***************************************************************
    1580              ;* FNAME: _USER_computeTorque_Ls_Id_Iq_pu_to_Nm_sf FR SIZE:  12           *
    1581              ;*                                                             *
    1582              ;* FUNCTION ENVIRONMENT                                        *
    1583              ;*                                                             *
    1584              ;* FUNCTION PROPERTIES                                         *
    1585              ;*                            2 Parameter,  8 Auto,  2 SOE     *
    1586              ;***************************************************************
    1587              
    1588              _USER_computeTorque_Ls_Id_Iq_pu_to_Nm_sf:
    1589              ;* AL    assigned to _lShift
    1590              $C$DW$119       .dwtag  DW_TAG_variable
    1591                      .dwattr $C$DW$119, DW_AT_name("lShift")
    1592                      .dwattr $C$DW$119, DW_AT_TI_symbol_name("_lShift")
    1593                      .dwattr $C$DW$119, DW_AT_type(*$C$DW$T$54)
    1594                      .dwattr $C$DW$119, DW_AT_location[DW_OP_reg0]
    1595              
    1596                      .dwcfi  cfa_offset, -2
    1597                      .dwcfi  save_reg_to_mem, 26, 0
    1598 0000026d B2BD          MOVL      *SP++,XAR1            ; [CPU_] 
    1599                      .dwcfi  save_reg_to_mem, 7, 2
    1600                      .dwcfi  cfa_offset, -4
    1601 0000026e FE0A          ADDB      SP,#10                ; [CPU_U] 
    1602                      .dwcfi  cfa_offset, -14
    1603                      .dwpsn  file "../src/user.c",line 924,column 18,is_stmt,isa 0
    1604 0000026f 28A9          MOV       AL,#22978             ; [CPU_] |924| 
         00000270 59C2 
    1605 00000271 28A8          MOV       AH,#15318             ; [CPU_] |924| 
         00000272 3BD6 
    1606              $C$DW$120       .dwtag  DW_TAG_TI_branch
    1607                      .dwattr $C$DW$120, DW_AT_low_pc(0x00)
    1608                      .dwattr $C$DW$120, DW_AT_name("_log")
    1609                      .dwattr $C$DW$120, DW_AT_TI_call
    1610              
    1611 00000273 7640!         LCR       #_log                 ; [CPU_] |924| 
         00000274 0000 
    1612                      ; call occurs [#_log] ; [] |924| 
    1613 00000275 8BA9          MOVL      XAR1,ACC              ; [CPU_] |924| 
    1614 00000276 9A00          MOV       AL,#0                 ; [CPU_] |924| 
    1615 00000277 28A8          MOV       AH,#16384             ; [CPU_] |924| 
         00000278 4000 
    1616              $C$DW$121       .dwtag  DW_TAG_TI_branch
    1617                      .dwattr $C$DW$121, DW_AT_low_pc(0x00)
    1618                      .dwattr $C$DW$121, DW_AT_name("_log")
    1619                      .dwattr $C$DW$121, DW_AT_TI_call
    1620              
    1621 00000279 7640!         LCR       #_log                 ; [CPU_] |924| 
         0000027a 0000 
    1622                      ; call occurs [#_log] ; [] |924| 
TMS320C2000 Assembler PC v16.9.6 Sun Jan 28 18:08:28 2018

Tools Copyright (c) 1996-2017 Texas Instruments Incorporated
C:\Users\Zulolo\AppData\Local\Temp\{7EDDBB07-3A94-4F89-8653-32F0EC9EC6F3} PAGE   33

    1623 0000027b 1E42          MOVL      *-SP[2],ACC           ; [CPU_] |924| 
    1624 0000027c B2A9          MOVL      ACC,XAR1              ; [CPU_] |924| 
    1625              $C$DW$122       .dwtag  DW_TAG_TI_branch
    1626                      .dwattr $C$DW$122, DW_AT_low_pc(0x00)
    1627                      .dwattr $C$DW$122, DW_AT_name("FS$$DIV")
    1628                      .dwattr $C$DW$122, DW_AT_TI_call
    1629              
    1630 0000027d 7640!         LCR       #FS$$DIV              ; [CPU_] |924| 
         0000027e 0000 
    1631                      ; call occurs [#FS$$DIV] ; [] |924| 
    1632              $C$DW$123       .dwtag  DW_TAG_TI_branch
    1633                      .dwattr $C$DW$123, DW_AT_low_pc(0x00)
    1634                      .dwattr $C$DW$123, DW_AT_name("_ceil")
    1635                      .dwattr $C$DW$123, DW_AT_TI_call
    1636              
    1637 0000027f 7640!         LCR       #_ceil                ; [CPU_] |924| 
         00000280 0000 
    1638                      ; call occurs [#_ceil] ; [] |924| 
    1639                      .dwpsn  file "../src/user.c",line 926,column 3,is_stmt,isa 0
    1640 00000281 1E42          MOVL      *-SP[2],ACC           ; [CPU_] |926| 
    1641 00000282 9A00          MOV       AL,#0                 ; [CPU_] |926| 
    1642 00000283 28A8          MOV       AH,#16384             ; [CPU_] |926| 
         00000284 4000 
    1643              $C$DW$124       .dwtag  DW_TAG_TI_branch
    1644                      .dwattr $C$DW$124, DW_AT_low_pc(0x00)
    1645                      .dwattr $C$DW$124, DW_AT_name("_pow")
    1646                      .dwattr $C$DW$124, DW_AT_TI_call
    1647              
    1648 00000285 7640!         LCR       #_pow                 ; [CPU_] |926| 
         00000286 0000 
    1649                      ; call occurs [#_pow] ; [] |926| 
    1650 00000287 1EA6          MOVL      XAR6,ACC              ; [CPU_] |926| 
    1651 00000288 28A9          MOV       AL,#19508             ; [CPU_] |926| 
         00000289 4C34 
    1652 0000028a 28A8          MOV       AH,#16332             ; [CPU_] |926| 
         0000028b 3FCC 
    1653 0000028c 1E42          MOVL      *-SP[2],ACC           ; [CPU_] |926| 
    1654 0000028d 06A6          MOVL      ACC,XAR6              ; [CPU_] |926| 
    1655              $C$DW$125       .dwtag  DW_TAG_TI_branch
    1656                      .dwattr $C$DW$125, DW_AT_low_pc(0x00)
    1657                      .dwattr $C$DW$125, DW_AT_name("FS$$MPY")
    1658                      .dwattr $C$DW$125, DW_AT_TI_call
    1659              
    1660 0000028e 7640!         LCR       #FS$$MPY              ; [CPU_] |926| 
         0000028f 0000 
    1661                      ; call occurs [#FS$$MPY] ; [] |926| 
    1662 00000290 5CAD          MOVZ      AR4,SP                ; [CPU_] |926| 
    1663 00000291 DC8A          SUBB      XAR4,#10              ; [CPU_U] |926| 
    1664 00000292 88A4          MOVZ      AR6,AR4               ; [CPU_] |926| 
    1665              $C$DW$126       .dwtag  DW_TAG_TI_branch
    1666                      .dwattr $C$DW$126, DW_AT_low_pc(0x00)
    1667                      .dwattr $C$DW$126, DW_AT_name("FS$$TOFD")
    1668                      .dwattr $C$DW$126, DW_AT_TI_call
    1669              
    1670 00000293 7640!         LCR       #FS$$TOFD             ; [CPU_] |926| 
TMS320C2000 Assembler PC v16.9.6 Sun Jan 28 18:08:28 2018

Tools Copyright (c) 1996-2017 Texas Instruments Incorporated
C:\Users\Zulolo\AppData\Local\Temp\{7EDDBB07-3A94-4F89-8653-32F0EC9EC6F3} PAGE   34

         00000294 0000 
    1671                      ; call occurs [#FS$$TOFD] ; [] |926| 
    1672 00000295 5DAD          MOVZ      AR5,SP                ; [CPU_] |926| 
    1673 00000296 5CAD          MOVZ      AR4,SP                ; [CPU_] |926| 
    1674 00000297 DD86          SUBB      XAR5,#6               ; [CPU_U] |926| 
    1675 00000298 DC8A          SUBB      XAR4,#10              ; [CPU_U] |926| 
    1676 00000299 88A5          MOVZ      AR6,AR5               ; [CPU_] |926| 
    1677 0000029a 5CA4          MOVZ      AR4,AR4               ; [CPU_] |926| 
    1678 0000029b 8F40+         MOVL      XAR5,#$C$FL2          ; [CPU_U] |926| 
         0000029c 0004 
    1679              $C$DW$127       .dwtag  DW_TAG_TI_branch
    1680                      .dwattr $C$DW$127, DW_AT_low_pc(0x00)
    1681                      .dwattr $C$DW$127, DW_AT_name("FD$$MPY")
    1682                      .dwattr $C$DW$127, DW_AT_TI_call
    1683              
    1684 0000029d 7640!         LCR       #FD$$MPY              ; [CPU_] |926| 
         0000029e 0000 
    1685                      ; call occurs [#FD$$MPY] ; [] |926| 
    1686 0000029f 5CAD          MOVZ      AR4,SP                ; [CPU_] |926| 
    1687 000002a0 DC86          SUBB      XAR4,#6               ; [CPU_U] |926| 
    1688 000002a1 5CA4          MOVZ      AR4,AR4               ; [CPU_] |926| 
    1689              $C$DW$128       .dwtag  DW_TAG_TI_branch
    1690                      .dwattr $C$DW$128, DW_AT_low_pc(0x00)
    1691                      .dwattr $C$DW$128, DW_AT_name("FD$$TOL")
    1692                      .dwattr $C$DW$128, DW_AT_TI_call
    1693              
    1694 000002a2 7640!         LCR       #FD$$TOL              ; [CPU_] |926| 
         000002a3 0000 
    1695                      ; call occurs [#FD$$TOL] ; [] |926| 
    1696 000002a4 FE8A          SUBB      SP,#10                ; [CPU_U] 
    1697                      .dwcfi  cfa_offset, -4
    1698 000002a5 8BBE          MOVL      XAR1,*--SP            ; [CPU_] 
    1699                      .dwcfi  cfa_offset, -2
    1700                      .dwcfi  restore_reg, 7
    1701              $C$DW$129       .dwtag  DW_TAG_TI_branch
    1702                      .dwattr $C$DW$129, DW_AT_low_pc(0x00)
    1703                      .dwattr $C$DW$129, DW_AT_TI_return
    1704              
    1705 000002a6 0006          LRETR     ; [CPU_] 
    1706                      ; return occurs ; [] 
    1707                      .dwattr $C$DW$118, DW_AT_TI_end_file("../src/user.c")
    1708                      .dwattr $C$DW$118, DW_AT_TI_end_line(0x39f)
    1709                      .dwattr $C$DW$118, DW_AT_TI_end_column(0x01)
    1710                      .dwendentry
    1711                      .dwendtag $C$DW$118
    1712              
    1713 000002a7               .sect   ".text"
    1714                      .clink
    1715                      .global _USER_computeTorque_Flux_Iq_pu_to_Nm_sf
    1716              
    1717              $C$DW$130       .dwtag  DW_TAG_subprogram
    1718                      .dwattr $C$DW$130, DW_AT_name("USER_computeTorque_Flux_Iq_pu_to_Nm_sf")
    1719                      .dwattr $C$DW$130, DW_AT_low_pc(_USER_computeTorque_Flux_Iq_pu_to_Nm_sf)
    1720                      .dwattr $C$DW$130, DW_AT_high_pc(0x00)
    1721                      .dwattr $C$DW$130, DW_AT_TI_symbol_name("_USER_computeTorque_Flux_Iq_pu_to_Nm_sf")
TMS320C2000 Assembler PC v16.9.6 Sun Jan 28 18:08:28 2018

Tools Copyright (c) 1996-2017 Texas Instruments Incorporated
C:\Users\Zulolo\AppData\Local\Temp\{7EDDBB07-3A94-4F89-8653-32F0EC9EC6F3} PAGE   35

    1722                      .dwattr $C$DW$130, DW_AT_external
    1723                      .dwattr $C$DW$130, DW_AT_type(*$C$DW$T$20)
    1724                      .dwattr $C$DW$130, DW_AT_TI_begin_file("../src/user.c")
    1725                      .dwattr $C$DW$130, DW_AT_TI_begin_line(0x3a4)
    1726                      .dwattr $C$DW$130, DW_AT_TI_begin_column(0x05)
    1727                      .dwattr $C$DW$130, DW_AT_TI_max_frame_size(-14)
    1728                      .dwpsn  file "../src/user.c",line 933,column 1,is_stmt,address _USER_computeTorque_Flux_Iq_pu_to_Nm_s
    1729              
    1730                      .dwfde $C$DW$CIE, _USER_computeTorque_Flux_Iq_pu_to_Nm_sf
    1731              
    1732              ;***************************************************************
    1733              ;* FNAME: _USER_computeTorque_Flux_Iq_pu_to_Nm_sf FR SIZE:  12           *
    1734              ;*                                                             *
    1735              ;* FUNCTION ENVIRONMENT                                        *
    1736              ;*                                                             *
    1737              ;* FUNCTION PROPERTIES                                         *
    1738              ;*                            2 Parameter,  8 Auto,  2 SOE     *
    1739              ;***************************************************************
    1740              
    1741              _USER_computeTorque_Flux_Iq_pu_to_Nm_sf:
    1742              ;* AL    assigned to _lShift
    1743              $C$DW$131       .dwtag  DW_TAG_variable
    1744                      .dwattr $C$DW$131, DW_AT_name("lShift")
    1745                      .dwattr $C$DW$131, DW_AT_TI_symbol_name("_lShift")
    1746                      .dwattr $C$DW$131, DW_AT_type(*$C$DW$T$54)
    1747                      .dwattr $C$DW$131, DW_AT_location[DW_OP_reg0]
    1748              
    1749                      .dwcfi  cfa_offset, -2
    1750                      .dwcfi  save_reg_to_mem, 26, 0
    1751 000002a7 B2BD          MOVL      *SP++,XAR1            ; [CPU_] 
    1752                      .dwcfi  save_reg_to_mem, 7, 2
    1753                      .dwcfi  cfa_offset, -4
    1754 000002a8 FE0A          ADDB      SP,#10                ; [CPU_U] 
    1755                      .dwcfi  cfa_offset, -14
    1756                      .dwpsn  file "../src/user.c",line 937,column 18,is_stmt,isa 0
    1757 000002a9 28A9          MOV       AL,#15248             ; [CPU_] |937| 
         000002aa 3B90 
    1758 000002ab 28A8          MOV       AH,#16056             ; [CPU_] |937| 
         000002ac 3EB8 
    1759              $C$DW$132       .dwtag  DW_TAG_TI_branch
    1760                      .dwattr $C$DW$132, DW_AT_low_pc(0x00)
    1761                      .dwattr $C$DW$132, DW_AT_name("_log")
    1762                      .dwattr $C$DW$132, DW_AT_TI_call
    1763              
    1764 000002ad 7640!         LCR       #_log                 ; [CPU_] |937| 
         000002ae 0000 
    1765                      ; call occurs [#_log] ; [] |937| 
    1766 000002af 8BA9          MOVL      XAR1,ACC              ; [CPU_] |937| 
    1767 000002b0 9A00          MOV       AL,#0                 ; [CPU_] |937| 
    1768 000002b1 28A8          MOV       AH,#16384             ; [CPU_] |937| 
         000002b2 4000 
    1769              $C$DW$133       .dwtag  DW_TAG_TI_branch
    1770                      .dwattr $C$DW$133, DW_AT_low_pc(0x00)
    1771                      .dwattr $C$DW$133, DW_AT_name("_log")
    1772                      .dwattr $C$DW$133, DW_AT_TI_call
TMS320C2000 Assembler PC v16.9.6 Sun Jan 28 18:08:28 2018

Tools Copyright (c) 1996-2017 Texas Instruments Incorporated
C:\Users\Zulolo\AppData\Local\Temp\{7EDDBB07-3A94-4F89-8653-32F0EC9EC6F3} PAGE   36

    1773              
    1774 000002b3 7640!         LCR       #_log                 ; [CPU_] |937| 
         000002b4 0000 
    1775                      ; call occurs [#_log] ; [] |937| 
    1776 000002b5 1E42          MOVL      *-SP[2],ACC           ; [CPU_] |937| 
    1777 000002b6 B2A9          MOVL      ACC,XAR1              ; [CPU_] |937| 
    1778              $C$DW$134       .dwtag  DW_TAG_TI_branch
    1779                      .dwattr $C$DW$134, DW_AT_low_pc(0x00)
    1780                      .dwattr $C$DW$134, DW_AT_name("FS$$DIV")
    1781                      .dwattr $C$DW$134, DW_AT_TI_call
    1782              
    1783 000002b7 7640!         LCR       #FS$$DIV              ; [CPU_] |937| 
         000002b8 0000 
    1784                      ; call occurs [#FS$$DIV] ; [] |937| 
    1785              $C$DW$135       .dwtag  DW_TAG_TI_branch
    1786                      .dwattr $C$DW$135, DW_AT_low_pc(0x00)
    1787                      .dwattr $C$DW$135, DW_AT_name("_ceil")
    1788                      .dwattr $C$DW$135, DW_AT_TI_call
    1789              
    1790 000002b9 7640!         LCR       #_ceil                ; [CPU_] |937| 
         000002ba 0000 
    1791                      ; call occurs [#_ceil] ; [] |937| 
    1792              $C$DW$136       .dwtag  DW_TAG_TI_branch
    1793                      .dwattr $C$DW$136, DW_AT_low_pc(0x00)
    1794                      .dwattr $C$DW$136, DW_AT_name("FS$$NEG")
    1795                      .dwattr $C$DW$136, DW_AT_TI_call
    1796              
    1797 000002bb 7640!         LCR       #FS$$NEG              ; [CPU_] |937| 
         000002bc 0000 
    1798                      ; call occurs [#FS$$NEG] ; [] |937| 
    1799                      .dwpsn  file "../src/user.c",line 939,column 3,is_stmt,isa 0
    1800 000002bd 1E42          MOVL      *-SP[2],ACC           ; [CPU_] |939| 
    1801 000002be 9A00          MOV       AL,#0                 ; [CPU_] |939| 
    1802 000002bf 28A8          MOV       AH,#16384             ; [CPU_] |939| 
         000002c0 4000 
    1803              $C$DW$137       .dwtag  DW_TAG_TI_branch
    1804                      .dwattr $C$DW$137, DW_AT_low_pc(0x00)
    1805                      .dwattr $C$DW$137, DW_AT_name("_pow")
    1806                      .dwattr $C$DW$137, DW_AT_TI_call
    1807              
    1808 000002c1 7640!         LCR       #_pow                 ; [CPU_] |939| 
         000002c2 0000 
    1809                      ; call occurs [#_pow] ; [] |939| 
    1810 000002c3 1EA6          MOVL      XAR6,ACC              ; [CPU_] |939| 
    1811 000002c4 28A9          MOV       AL,#12939             ; [CPU_] |939| 
         000002c5 328B 
    1812 000002c6 28A8          MOV       AH,#15638             ; [CPU_] |939| 
         000002c7 3D16 
    1813 000002c8 1E42          MOVL      *-SP[2],ACC           ; [CPU_] |939| 
    1814 000002c9 06A6          MOVL      ACC,XAR6              ; [CPU_] |939| 
    1815              $C$DW$138       .dwtag  DW_TAG_TI_branch
    1816                      .dwattr $C$DW$138, DW_AT_low_pc(0x00)
    1817                      .dwattr $C$DW$138, DW_AT_name("FS$$MPY")
    1818                      .dwattr $C$DW$138, DW_AT_TI_call
    1819              
TMS320C2000 Assembler PC v16.9.6 Sun Jan 28 18:08:28 2018

Tools Copyright (c) 1996-2017 Texas Instruments Incorporated
C:\Users\Zulolo\AppData\Local\Temp\{7EDDBB07-3A94-4F89-8653-32F0EC9EC6F3} PAGE   37

    1820 000002ca 7640!         LCR       #FS$$MPY              ; [CPU_] |939| 
         000002cb 0000 
    1821                      ; call occurs [#FS$$MPY] ; [] |939| 
    1822 000002cc 5CAD          MOVZ      AR4,SP                ; [CPU_] |939| 
    1823 000002cd DC8A          SUBB      XAR4,#10              ; [CPU_U] |939| 
    1824 000002ce 88A4          MOVZ      AR6,AR4               ; [CPU_] |939| 
    1825              $C$DW$139       .dwtag  DW_TAG_TI_branch
    1826                      .dwattr $C$DW$139, DW_AT_low_pc(0x00)
    1827                      .dwattr $C$DW$139, DW_AT_name("FS$$TOFD")
    1828                      .dwattr $C$DW$139, DW_AT_TI_call
    1829              
    1830 000002cf 7640!         LCR       #FS$$TOFD             ; [CPU_] |939| 
         000002d0 0000 
    1831                      ; call occurs [#FS$$TOFD] ; [] |939| 
    1832 000002d1 5DAD          MOVZ      AR5,SP                ; [CPU_] |939| 
    1833 000002d2 5CAD          MOVZ      AR4,SP                ; [CPU_] |939| 
    1834 000002d3 DD86          SUBB      XAR5,#6               ; [CPU_U] |939| 
    1835 000002d4 DC8A          SUBB      XAR4,#10              ; [CPU_U] |939| 
    1836 000002d5 88A5          MOVZ      AR6,AR5               ; [CPU_] |939| 
    1837 000002d6 5CA4          MOVZ      AR4,AR4               ; [CPU_] |939| 
    1838 000002d7 8F40+         MOVL      XAR5,#$C$FL2          ; [CPU_U] |939| 
         000002d8 0004 
    1839              $C$DW$140       .dwtag  DW_TAG_TI_branch
    1840                      .dwattr $C$DW$140, DW_AT_low_pc(0x00)
    1841                      .dwattr $C$DW$140, DW_AT_name("FD$$MPY")
    1842                      .dwattr $C$DW$140, DW_AT_TI_call
    1843              
    1844 000002d9 7640!         LCR       #FD$$MPY              ; [CPU_] |939| 
         000002da 0000 
    1845                      ; call occurs [#FD$$MPY] ; [] |939| 
    1846 000002db 5CAD          MOVZ      AR4,SP                ; [CPU_] |939| 
    1847 000002dc DC86          SUBB      XAR4,#6               ; [CPU_U] |939| 
    1848 000002dd 5CA4          MOVZ      AR4,AR4               ; [CPU_] |939| 
    1849              $C$DW$141       .dwtag  DW_TAG_TI_branch
    1850                      .dwattr $C$DW$141, DW_AT_low_pc(0x00)
    1851                      .dwattr $C$DW$141, DW_AT_name("FD$$TOL")
    1852                      .dwattr $C$DW$141, DW_AT_TI_call
    1853              
    1854 000002de 7640!         LCR       #FD$$TOL              ; [CPU_] |939| 
         000002df 0000 
    1855                      ; call occurs [#FD$$TOL] ; [] |939| 
    1856 000002e0 FE8A          SUBB      SP,#10                ; [CPU_U] 
    1857                      .dwcfi  cfa_offset, -4
    1858 000002e1 8BBE          MOVL      XAR1,*--SP            ; [CPU_] 
    1859                      .dwcfi  cfa_offset, -2
    1860                      .dwcfi  restore_reg, 7
    1861              $C$DW$142       .dwtag  DW_TAG_TI_branch
    1862                      .dwattr $C$DW$142, DW_AT_low_pc(0x00)
    1863                      .dwattr $C$DW$142, DW_AT_TI_return
    1864              
    1865 000002e2 0006          LRETR     ; [CPU_] 
    1866                      ; return occurs ; [] 
    1867                      .dwattr $C$DW$130, DW_AT_TI_end_file("../src/user.c")
    1868                      .dwattr $C$DW$130, DW_AT_TI_end_line(0x3ac)
    1869                      .dwattr $C$DW$130, DW_AT_TI_end_column(0x01)
TMS320C2000 Assembler PC v16.9.6 Sun Jan 28 18:08:28 2018

Tools Copyright (c) 1996-2017 Texas Instruments Incorporated
C:\Users\Zulolo\AppData\Local\Temp\{7EDDBB07-3A94-4F89-8653-32F0EC9EC6F3} PAGE   38

    1870                      .dwendentry
    1871                      .dwendtag $C$DW$130
    1872              
    1873 000002e3               .sect   ".text"
    1874                      .clink
    1875                      .global _USER_computeFlux_pu_to_Wb_sf
    1876              
    1877              $C$DW$143       .dwtag  DW_TAG_subprogram
    1878                      .dwattr $C$DW$143, DW_AT_name("USER_computeFlux_pu_to_Wb_sf")
    1879                      .dwattr $C$DW$143, DW_AT_low_pc(_USER_computeFlux_pu_to_Wb_sf)
    1880                      .dwattr $C$DW$143, DW_AT_high_pc(0x00)
    1881                      .dwattr $C$DW$143, DW_AT_TI_symbol_name("_USER_computeFlux_pu_to_Wb_sf")
    1882                      .dwattr $C$DW$143, DW_AT_external
    1883                      .dwattr $C$DW$143, DW_AT_type(*$C$DW$T$20)
    1884                      .dwattr $C$DW$143, DW_AT_TI_begin_file("../src/user.c")
    1885                      .dwattr $C$DW$143, DW_AT_TI_begin_line(0x3b1)
    1886                      .dwattr $C$DW$143, DW_AT_TI_begin_column(0x05)
    1887                      .dwattr $C$DW$143, DW_AT_TI_max_frame_size(-14)
    1888                      .dwpsn  file "../src/user.c",line 946,column 1,is_stmt,address _USER_computeFlux_pu_to_Wb_sf,isa 0
    1889              
    1890                      .dwfde $C$DW$CIE, _USER_computeFlux_pu_to_Wb_sf
    1891              
    1892              ;***************************************************************
    1893              ;* FNAME: _USER_computeFlux_pu_to_Wb_sf FR SIZE:  12           *
    1894              ;*                                                             *
    1895              ;* FUNCTION ENVIRONMENT                                        *
    1896              ;*                                                             *
    1897              ;* FUNCTION PROPERTIES                                         *
    1898              ;*                            2 Parameter,  8 Auto,  2 SOE     *
    1899              ;***************************************************************
    1900              
    1901              _USER_computeFlux_pu_to_Wb_sf:
    1902              ;* AL    assigned to _lShift
    1903              $C$DW$144       .dwtag  DW_TAG_variable
    1904                      .dwattr $C$DW$144, DW_AT_name("lShift")
    1905                      .dwattr $C$DW$144, DW_AT_TI_symbol_name("_lShift")
    1906                      .dwattr $C$DW$144, DW_AT_type(*$C$DW$T$54)
    1907                      .dwattr $C$DW$144, DW_AT_location[DW_OP_reg0]
    1908              
    1909                      .dwcfi  cfa_offset, -2
    1910                      .dwcfi  save_reg_to_mem, 26, 0
    1911 000002e3 B2BD          MOVL      *SP++,XAR1            ; [CPU_] 
    1912                      .dwcfi  save_reg_to_mem, 7, 2
    1913                      .dwcfi  cfa_offset, -4
    1914 000002e4 FE0A          ADDB      SP,#10                ; [CPU_U] 
    1915                      .dwcfi  cfa_offset, -14
    1916                      .dwpsn  file "../src/user.c",line 949,column 18,is_stmt,isa 0
    1917 000002e5 28A9          MOV       AL,#15248             ; [CPU_] |949| 
         000002e6 3B90 
    1918 000002e7 28A8          MOV       AH,#16056             ; [CPU_] |949| 
         000002e8 3EB8 
    1919              $C$DW$145       .dwtag  DW_TAG_TI_branch
    1920                      .dwattr $C$DW$145, DW_AT_low_pc(0x00)
    1921                      .dwattr $C$DW$145, DW_AT_name("_log")
    1922                      .dwattr $C$DW$145, DW_AT_TI_call
TMS320C2000 Assembler PC v16.9.6 Sun Jan 28 18:08:28 2018

Tools Copyright (c) 1996-2017 Texas Instruments Incorporated
C:\Users\Zulolo\AppData\Local\Temp\{7EDDBB07-3A94-4F89-8653-32F0EC9EC6F3} PAGE   39

    1923              
    1924 000002e9 7640!         LCR       #_log                 ; [CPU_] |949| 
         000002ea 0000 
    1925                      ; call occurs [#_log] ; [] |949| 
    1926 000002eb 8BA9          MOVL      XAR1,ACC              ; [CPU_] |949| 
    1927 000002ec 9A00          MOV       AL,#0                 ; [CPU_] |949| 
    1928 000002ed 28A8          MOV       AH,#16384             ; [CPU_] |949| 
         000002ee 4000 
    1929              $C$DW$146       .dwtag  DW_TAG_TI_branch
    1930                      .dwattr $C$DW$146, DW_AT_low_pc(0x00)
    1931                      .dwattr $C$DW$146, DW_AT_name("_log")
    1932                      .dwattr $C$DW$146, DW_AT_TI_call
    1933              
    1934 000002ef 7640!         LCR       #_log                 ; [CPU_] |949| 
         000002f0 0000 
    1935                      ; call occurs [#_log] ; [] |949| 
    1936 000002f1 1E42          MOVL      *-SP[2],ACC           ; [CPU_] |949| 
    1937 000002f2 B2A9          MOVL      ACC,XAR1              ; [CPU_] |949| 
    1938              $C$DW$147       .dwtag  DW_TAG_TI_branch
    1939                      .dwattr $C$DW$147, DW_AT_low_pc(0x00)
    1940                      .dwattr $C$DW$147, DW_AT_name("FS$$DIV")
    1941                      .dwattr $C$DW$147, DW_AT_TI_call
    1942              
    1943 000002f3 7640!         LCR       #FS$$DIV              ; [CPU_] |949| 
         000002f4 0000 
    1944                      ; call occurs [#FS$$DIV] ; [] |949| 
    1945              $C$DW$148       .dwtag  DW_TAG_TI_branch
    1946                      .dwattr $C$DW$148, DW_AT_low_pc(0x00)
    1947                      .dwattr $C$DW$148, DW_AT_name("_ceil")
    1948                      .dwattr $C$DW$148, DW_AT_TI_call
    1949              
    1950 000002f5 7640!         LCR       #_ceil                ; [CPU_] |949| 
         000002f6 0000 
    1951                      ; call occurs [#_ceil] ; [] |949| 
    1952              $C$DW$149       .dwtag  DW_TAG_TI_branch
    1953                      .dwattr $C$DW$149, DW_AT_low_pc(0x00)
    1954                      .dwattr $C$DW$149, DW_AT_name("FS$$NEG")
    1955                      .dwattr $C$DW$149, DW_AT_TI_call
    1956              
    1957 000002f7 7640!         LCR       #FS$$NEG              ; [CPU_] |949| 
         000002f8 0000 
    1958                      ; call occurs [#FS$$NEG] ; [] |949| 
    1959                      .dwpsn  file "../src/user.c",line 951,column 3,is_stmt,isa 0
    1960 000002f9 1E42          MOVL      *-SP[2],ACC           ; [CPU_] |951| 
    1961 000002fa 9A00          MOV       AL,#0                 ; [CPU_] |951| 
    1962 000002fb 28A8          MOV       AH,#16384             ; [CPU_] |951| 
         000002fc 4000 
    1963              $C$DW$150       .dwtag  DW_TAG_TI_branch
    1964                      .dwattr $C$DW$150, DW_AT_low_pc(0x00)
    1965                      .dwattr $C$DW$150, DW_AT_name("_pow")
    1966                      .dwattr $C$DW$150, DW_AT_TI_call
    1967              
    1968 000002fd 7640!         LCR       #_pow                 ; [CPU_] |951| 
         000002fe 0000 
    1969                      ; call occurs [#_pow] ; [] |951| 
TMS320C2000 Assembler PC v16.9.6 Sun Jan 28 18:08:28 2018

Tools Copyright (c) 1996-2017 Texas Instruments Incorporated
C:\Users\Zulolo\AppData\Local\Temp\{7EDDBB07-3A94-4F89-8653-32F0EC9EC6F3} PAGE   40

    1970 000002ff 1EA6          MOVL      XAR6,ACC              ; [CPU_] |951| 
    1971 00000300 28A9          MOV       AL,#33347             ; [CPU_] |951| 
         00000301 8243 
    1972 00000302 28A8          MOV       AH,#14725             ; [CPU_] |951| 
         00000303 3985 
    1973 00000304 1E42          MOVL      *-SP[2],ACC           ; [CPU_] |951| 
    1974 00000305 06A6          MOVL      ACC,XAR6              ; [CPU_] |951| 
    1975              $C$DW$151       .dwtag  DW_TAG_TI_branch
    1976                      .dwattr $C$DW$151, DW_AT_low_pc(0x00)
    1977                      .dwattr $C$DW$151, DW_AT_name("FS$$MPY")
    1978                      .dwattr $C$DW$151, DW_AT_TI_call
    1979              
    1980 00000306 7640!         LCR       #FS$$MPY              ; [CPU_] |951| 
         00000307 0000 
    1981                      ; call occurs [#FS$$MPY] ; [] |951| 
    1982 00000308 5CAD          MOVZ      AR4,SP                ; [CPU_] |951| 
    1983 00000309 DC8A          SUBB      XAR4,#10              ; [CPU_U] |951| 
    1984 0000030a 88A4          MOVZ      AR6,AR4               ; [CPU_] |951| 
    1985              $C$DW$152       .dwtag  DW_TAG_TI_branch
    1986                      .dwattr $C$DW$152, DW_AT_low_pc(0x00)
    1987                      .dwattr $C$DW$152, DW_AT_name("FS$$TOFD")
    1988                      .dwattr $C$DW$152, DW_AT_TI_call
    1989              
    1990 0000030b 7640!         LCR       #FS$$TOFD             ; [CPU_] |951| 
         0000030c 0000 
    1991                      ; call occurs [#FS$$TOFD] ; [] |951| 
    1992 0000030d 5DAD          MOVZ      AR5,SP                ; [CPU_] |951| 
    1993 0000030e 5CAD          MOVZ      AR4,SP                ; [CPU_] |951| 
    1994 0000030f DD86          SUBB      XAR5,#6               ; [CPU_U] |951| 
    1995 00000310 DC8A          SUBB      XAR4,#10              ; [CPU_U] |951| 
    1996 00000311 88A5          MOVZ      AR6,AR5               ; [CPU_] |951| 
    1997 00000312 5CA4          MOVZ      AR4,AR4               ; [CPU_] |951| 
    1998 00000313 8F40+         MOVL      XAR5,#$C$FL2          ; [CPU_U] |951| 
         00000314 0004 
    1999              $C$DW$153       .dwtag  DW_TAG_TI_branch
    2000                      .dwattr $C$DW$153, DW_AT_low_pc(0x00)
    2001                      .dwattr $C$DW$153, DW_AT_name("FD$$MPY")
    2002                      .dwattr $C$DW$153, DW_AT_TI_call
    2003              
    2004 00000315 7640!         LCR       #FD$$MPY              ; [CPU_] |951| 
         00000316 0000 
    2005                      ; call occurs [#FD$$MPY] ; [] |951| 
    2006 00000317 5CAD          MOVZ      AR4,SP                ; [CPU_] |951| 
    2007 00000318 DC86          SUBB      XAR4,#6               ; [CPU_U] |951| 
    2008 00000319 5CA4          MOVZ      AR4,AR4               ; [CPU_] |951| 
    2009              $C$DW$154       .dwtag  DW_TAG_TI_branch
    2010                      .dwattr $C$DW$154, DW_AT_low_pc(0x00)
    2011                      .dwattr $C$DW$154, DW_AT_name("FD$$TOL")
    2012                      .dwattr $C$DW$154, DW_AT_TI_call
    2013              
    2014 0000031a 7640!         LCR       #FD$$TOL              ; [CPU_] |951| 
         0000031b 0000 
    2015                      ; call occurs [#FD$$TOL] ; [] |951| 
    2016 0000031c FE8A          SUBB      SP,#10                ; [CPU_U] 
    2017                      .dwcfi  cfa_offset, -4
TMS320C2000 Assembler PC v16.9.6 Sun Jan 28 18:08:28 2018

Tools Copyright (c) 1996-2017 Texas Instruments Incorporated
C:\Users\Zulolo\AppData\Local\Temp\{7EDDBB07-3A94-4F89-8653-32F0EC9EC6F3} PAGE   41

    2018 0000031d 8BBE          MOVL      XAR1,*--SP            ; [CPU_] 
    2019                      .dwcfi  cfa_offset, -2
    2020                      .dwcfi  restore_reg, 7
    2021              $C$DW$155       .dwtag  DW_TAG_TI_branch
    2022                      .dwattr $C$DW$155, DW_AT_low_pc(0x00)
    2023                      .dwattr $C$DW$155, DW_AT_TI_return
    2024              
    2025 0000031e 0006          LRETR     ; [CPU_] 
    2026                      ; return occurs ; [] 
    2027                      .dwattr $C$DW$143, DW_AT_TI_end_file("../src/user.c")
    2028                      .dwattr $C$DW$143, DW_AT_TI_end_line(0x3b8)
    2029                      .dwattr $C$DW$143, DW_AT_TI_end_column(0x01)
    2030                      .dwendentry
    2031                      .dwendtag $C$DW$143
    2032              
    2033 0000031f               .sect   ".text"
    2034                      .clink
    2035                      .global _USER_computeFlux_pu_to_VpHz_sf
    2036              
    2037              $C$DW$156       .dwtag  DW_TAG_subprogram
    2038                      .dwattr $C$DW$156, DW_AT_name("USER_computeFlux_pu_to_VpHz_sf")
    2039                      .dwattr $C$DW$156, DW_AT_low_pc(_USER_computeFlux_pu_to_VpHz_sf)
    2040                      .dwattr $C$DW$156, DW_AT_high_pc(0x00)
    2041                      .dwattr $C$DW$156, DW_AT_TI_symbol_name("_USER_computeFlux_pu_to_VpHz_sf")
    2042                      .dwattr $C$DW$156, DW_AT_external
    2043                      .dwattr $C$DW$156, DW_AT_type(*$C$DW$T$20)
    2044                      .dwattr $C$DW$156, DW_AT_TI_begin_file("../src/user.c")
    2045                      .dwattr $C$DW$156, DW_AT_TI_begin_line(0x3bd)
    2046                      .dwattr $C$DW$156, DW_AT_TI_begin_column(0x05)
    2047                      .dwattr $C$DW$156, DW_AT_TI_max_frame_size(-14)
    2048                      .dwpsn  file "../src/user.c",line 958,column 1,is_stmt,address _USER_computeFlux_pu_to_VpHz_sf,isa 0
    2049              
    2050                      .dwfde $C$DW$CIE, _USER_computeFlux_pu_to_VpHz_sf
    2051              
    2052              ;***************************************************************
    2053              ;* FNAME: _USER_computeFlux_pu_to_VpHz_sf FR SIZE:  12           *
    2054              ;*                                                             *
    2055              ;* FUNCTION ENVIRONMENT                                        *
    2056              ;*                                                             *
    2057              ;* FUNCTION PROPERTIES                                         *
    2058              ;*                            2 Parameter,  8 Auto,  2 SOE     *
    2059              ;***************************************************************
    2060              
    2061              _USER_computeFlux_pu_to_VpHz_sf:
    2062              ;* AL    assigned to _lShift
    2063              $C$DW$157       .dwtag  DW_TAG_variable
    2064                      .dwattr $C$DW$157, DW_AT_name("lShift")
    2065                      .dwattr $C$DW$157, DW_AT_TI_symbol_name("_lShift")
    2066                      .dwattr $C$DW$157, DW_AT_type(*$C$DW$T$54)
    2067                      .dwattr $C$DW$157, DW_AT_location[DW_OP_reg0]
    2068              
    2069                      .dwcfi  cfa_offset, -2
    2070                      .dwcfi  save_reg_to_mem, 26, 0
    2071 0000031f B2BD          MOVL      *SP++,XAR1            ; [CPU_] 
    2072                      .dwcfi  save_reg_to_mem, 7, 2
TMS320C2000 Assembler PC v16.9.6 Sun Jan 28 18:08:28 2018

Tools Copyright (c) 1996-2017 Texas Instruments Incorporated
C:\Users\Zulolo\AppData\Local\Temp\{7EDDBB07-3A94-4F89-8653-32F0EC9EC6F3} PAGE   42

    2073                      .dwcfi  cfa_offset, -4
    2074 00000320 FE0A          ADDB      SP,#10                ; [CPU_U] 
    2075                      .dwcfi  cfa_offset, -14
    2076                      .dwpsn  file "../src/user.c",line 961,column 18,is_stmt,isa 0
    2077 00000321 28A9          MOV       AL,#15248             ; [CPU_] |961| 
         00000322 3B90 
    2078 00000323 28A8          MOV       AH,#16056             ; [CPU_] |961| 
         00000324 3EB8 
    2079              $C$DW$158       .dwtag  DW_TAG_TI_branch
    2080                      .dwattr $C$DW$158, DW_AT_low_pc(0x00)
    2081                      .dwattr $C$DW$158, DW_AT_name("_log")
    2082                      .dwattr $C$DW$158, DW_AT_TI_call
    2083              
    2084 00000325 7640!         LCR       #_log                 ; [CPU_] |961| 
         00000326 0000 
    2085                      ; call occurs [#_log] ; [] |961| 
    2086 00000327 8BA9          MOVL      XAR1,ACC              ; [CPU_] |961| 
    2087 00000328 9A00          MOV       AL,#0                 ; [CPU_] |961| 
    2088 00000329 28A8          MOV       AH,#16384             ; [CPU_] |961| 
         0000032a 4000 
    2089              $C$DW$159       .dwtag  DW_TAG_TI_branch
    2090                      .dwattr $C$DW$159, DW_AT_low_pc(0x00)
    2091                      .dwattr $C$DW$159, DW_AT_name("_log")
    2092                      .dwattr $C$DW$159, DW_AT_TI_call
    2093              
    2094 0000032b 7640!         LCR       #_log                 ; [CPU_] |961| 
         0000032c 0000 
    2095                      ; call occurs [#_log] ; [] |961| 
    2096 0000032d 1E42          MOVL      *-SP[2],ACC           ; [CPU_] |961| 
    2097 0000032e B2A9          MOVL      ACC,XAR1              ; [CPU_] |961| 
    2098              $C$DW$160       .dwtag  DW_TAG_TI_branch
    2099                      .dwattr $C$DW$160, DW_AT_low_pc(0x00)
    2100                      .dwattr $C$DW$160, DW_AT_name("FS$$DIV")
    2101                      .dwattr $C$DW$160, DW_AT_TI_call
    2102              
    2103 0000032f 7640!         LCR       #FS$$DIV              ; [CPU_] |961| 
         00000330 0000 
    2104                      ; call occurs [#FS$$DIV] ; [] |961| 
    2105              $C$DW$161       .dwtag  DW_TAG_TI_branch
    2106                      .dwattr $C$DW$161, DW_AT_low_pc(0x00)
    2107                      .dwattr $C$DW$161, DW_AT_name("_ceil")
    2108                      .dwattr $C$DW$161, DW_AT_TI_call
    2109              
    2110 00000331 7640!         LCR       #_ceil                ; [CPU_] |961| 
         00000332 0000 
    2111                      ; call occurs [#_ceil] ; [] |961| 
    2112              $C$DW$162       .dwtag  DW_TAG_TI_branch
    2113                      .dwattr $C$DW$162, DW_AT_low_pc(0x00)
    2114                      .dwattr $C$DW$162, DW_AT_name("FS$$NEG")
    2115                      .dwattr $C$DW$162, DW_AT_TI_call
    2116              
    2117 00000333 7640!         LCR       #FS$$NEG              ; [CPU_] |961| 
         00000334 0000 
    2118                      ; call occurs [#FS$$NEG] ; [] |961| 
    2119                      .dwpsn  file "../src/user.c",line 963,column 3,is_stmt,isa 0
TMS320C2000 Assembler PC v16.9.6 Sun Jan 28 18:08:28 2018

Tools Copyright (c) 1996-2017 Texas Instruments Incorporated
C:\Users\Zulolo\AppData\Local\Temp\{7EDDBB07-3A94-4F89-8653-32F0EC9EC6F3} PAGE   43

    2120 00000335 1E42          MOVL      *-SP[2],ACC           ; [CPU_] |963| 
    2121 00000336 9A00          MOV       AL,#0                 ; [CPU_] |963| 
    2122 00000337 28A8          MOV       AH,#16384             ; [CPU_] |963| 
         00000338 4000 
    2123              $C$DW$163       .dwtag  DW_TAG_TI_branch
    2124                      .dwattr $C$DW$163, DW_AT_low_pc(0x00)
    2125                      .dwattr $C$DW$163, DW_AT_name("_pow")
    2126                      .dwattr $C$DW$163, DW_AT_TI_call
    2127              
    2128 00000339 7640!         LCR       #_pow                 ; [CPU_] |963| 
         0000033a 0000 
    2129                      ; call occurs [#_pow] ; [] |963| 
    2130 0000033b 1EA6          MOVL      XAR6,ACC              ; [CPU_] |963| 
    2131 0000033c 28A9          MOV       AL,#46871             ; [CPU_] |963| 
         0000033d B717 
    2132 0000033e 28A8          MOV       AH,#15057             ; [CPU_] |963| 
         0000033f 3AD1 
    2133 00000340 1E42          MOVL      *-SP[2],ACC           ; [CPU_] |963| 
    2134 00000341 06A6          MOVL      ACC,XAR6              ; [CPU_] |963| 
    2135              $C$DW$164       .dwtag  DW_TAG_TI_branch
    2136                      .dwattr $C$DW$164, DW_AT_low_pc(0x00)
    2137                      .dwattr $C$DW$164, DW_AT_name("FS$$MPY")
    2138                      .dwattr $C$DW$164, DW_AT_TI_call
    2139              
    2140 00000342 7640!         LCR       #FS$$MPY              ; [CPU_] |963| 
         00000343 0000 
    2141                      ; call occurs [#FS$$MPY] ; [] |963| 
    2142 00000344 5CAD          MOVZ      AR4,SP                ; [CPU_] |963| 
    2143 00000345 DC8A          SUBB      XAR4,#10              ; [CPU_U] |963| 
    2144 00000346 88A4          MOVZ      AR6,AR4               ; [CPU_] |963| 
    2145              $C$DW$165       .dwtag  DW_TAG_TI_branch
    2146                      .dwattr $C$DW$165, DW_AT_low_pc(0x00)
    2147                      .dwattr $C$DW$165, DW_AT_name("FS$$TOFD")
    2148                      .dwattr $C$DW$165, DW_AT_TI_call
    2149              
    2150 00000347 7640!         LCR       #FS$$TOFD             ; [CPU_] |963| 
         00000348 0000 
    2151                      ; call occurs [#FS$$TOFD] ; [] |963| 
    2152 00000349 5DAD          MOVZ      AR5,SP                ; [CPU_] |963| 
    2153 0000034a 5CAD          MOVZ      AR4,SP                ; [CPU_] |963| 
    2154 0000034b DD86          SUBB      XAR5,#6               ; [CPU_U] |963| 
    2155 0000034c DC8A          SUBB      XAR4,#10              ; [CPU_U] |963| 
    2156 0000034d 88A5          MOVZ      AR6,AR5               ; [CPU_] |963| 
    2157 0000034e 5CA4          MOVZ      AR4,AR4               ; [CPU_] |963| 
    2158 0000034f 8F40+         MOVL      XAR5,#$C$FL2          ; [CPU_U] |963| 
         00000350 0004 
    2159              $C$DW$166       .dwtag  DW_TAG_TI_branch
    2160                      .dwattr $C$DW$166, DW_AT_low_pc(0x00)
    2161                      .dwattr $C$DW$166, DW_AT_name("FD$$MPY")
    2162                      .dwattr $C$DW$166, DW_AT_TI_call
    2163              
    2164 00000351 7640!         LCR       #FD$$MPY              ; [CPU_] |963| 
         00000352 0000 
    2165                      ; call occurs [#FD$$MPY] ; [] |963| 
    2166 00000353 5CAD          MOVZ      AR4,SP                ; [CPU_] |963| 
TMS320C2000 Assembler PC v16.9.6 Sun Jan 28 18:08:28 2018

Tools Copyright (c) 1996-2017 Texas Instruments Incorporated
C:\Users\Zulolo\AppData\Local\Temp\{7EDDBB07-3A94-4F89-8653-32F0EC9EC6F3} PAGE   44

    2167 00000354 DC86          SUBB      XAR4,#6               ; [CPU_U] |963| 
    2168 00000355 5CA4          MOVZ      AR4,AR4               ; [CPU_] |963| 
    2169              $C$DW$167       .dwtag  DW_TAG_TI_branch
    2170                      .dwattr $C$DW$167, DW_AT_low_pc(0x00)
    2171                      .dwattr $C$DW$167, DW_AT_name("FD$$TOL")
    2172                      .dwattr $C$DW$167, DW_AT_TI_call
    2173              
    2174 00000356 7640!         LCR       #FD$$TOL              ; [CPU_] |963| 
         00000357 0000 
    2175                      ; call occurs [#FD$$TOL] ; [] |963| 
    2176 00000358 FE8A          SUBB      SP,#10                ; [CPU_U] 
    2177                      .dwcfi  cfa_offset, -4
    2178 00000359 8BBE          MOVL      XAR1,*--SP            ; [CPU_] 
    2179                      .dwcfi  cfa_offset, -2
    2180                      .dwcfi  restore_reg, 7
    2181              $C$DW$168       .dwtag  DW_TAG_TI_branch
    2182                      .dwattr $C$DW$168, DW_AT_low_pc(0x00)
    2183                      .dwattr $C$DW$168, DW_AT_TI_return
    2184              
    2185 0000035a 0006          LRETR     ; [CPU_] 
    2186                      ; return occurs ; [] 
    2187                      .dwattr $C$DW$156, DW_AT_TI_end_file("../src/user.c")
    2188                      .dwattr $C$DW$156, DW_AT_TI_end_line(0x3c4)
    2189                      .dwattr $C$DW$156, DW_AT_TI_end_column(0x01)
    2190                      .dwendentry
    2191                      .dwendtag $C$DW$156
    2192              
    2193 0000035b               .sect   ".text"
    2194                      .clink
    2195                      .global _USER_computeFlux
    2196              
    2197              $C$DW$169       .dwtag  DW_TAG_subprogram
    2198                      .dwattr $C$DW$169, DW_AT_name("USER_computeFlux")
    2199                      .dwattr $C$DW$169, DW_AT_low_pc(_USER_computeFlux)
    2200                      .dwattr $C$DW$169, DW_AT_high_pc(0x00)
    2201                      .dwattr $C$DW$169, DW_AT_TI_symbol_name("_USER_computeFlux")
    2202                      .dwattr $C$DW$169, DW_AT_external
    2203                      .dwattr $C$DW$169, DW_AT_type(*$C$DW$T$20)
    2204                      .dwattr $C$DW$169, DW_AT_TI_begin_file("../src/user.c")
    2205                      .dwattr $C$DW$169, DW_AT_TI_begin_line(0x3c9)
    2206                      .dwattr $C$DW$169, DW_AT_TI_begin_column(0x05)
    2207                      .dwattr $C$DW$169, DW_AT_TI_max_frame_size(-4)
    2208                      .dwpsn  file "../src/user.c",line 970,column 1,is_stmt,address _USER_computeFlux,isa 0
    2209              
    2210                      .dwfde $C$DW$CIE, _USER_computeFlux
    2211              $C$DW$170       .dwtag  DW_TAG_formal_parameter
    2212                      .dwattr $C$DW$170, DW_AT_name("handle")
    2213                      .dwattr $C$DW$170, DW_AT_TI_symbol_name("_handle")
    2214                      .dwattr $C$DW$170, DW_AT_type(*$C$DW$T$87)
    2215                      .dwattr $C$DW$170, DW_AT_location[DW_OP_reg12]
    2216              
    2217              $C$DW$171       .dwtag  DW_TAG_formal_parameter
    2218                      .dwattr $C$DW$171, DW_AT_name("sf")
    2219                      .dwattr $C$DW$171, DW_AT_TI_symbol_name("_sf")
    2220                      .dwattr $C$DW$171, DW_AT_type(*$C$DW$T$20)
TMS320C2000 Assembler PC v16.9.6 Sun Jan 28 18:08:28 2018

Tools Copyright (c) 1996-2017 Texas Instruments Incorporated
C:\Users\Zulolo\AppData\Local\Temp\{7EDDBB07-3A94-4F89-8653-32F0EC9EC6F3} PAGE   45

    2221                      .dwattr $C$DW$171, DW_AT_location[DW_OP_reg0]
    2222              
    2223              
    2224              ;***************************************************************
    2225              ;* FNAME: _USER_computeFlux             FR SIZE:   2           *
    2226              ;*                                                             *
    2227              ;* FUNCTION ENVIRONMENT                                        *
    2228              ;*                                                             *
    2229              ;* FUNCTION PROPERTIES                                         *
    2230              ;*                            0 Parameter,  0 Auto,  2 SOE     *
    2231              ;***************************************************************
    2232              
    2233              _USER_computeFlux:
    2234              ;* AR4   assigned to _handle
    2235              $C$DW$172       .dwtag  DW_TAG_variable
    2236                      .dwattr $C$DW$172, DW_AT_name("handle")
    2237                      .dwattr $C$DW$172, DW_AT_TI_symbol_name("_handle")
    2238                      .dwattr $C$DW$172, DW_AT_type(*$C$DW$T$88)
    2239                      .dwattr $C$DW$172, DW_AT_location[DW_OP_reg12]
    2240              
    2241              ;* AR1   assigned to _sf
    2242              $C$DW$173       .dwtag  DW_TAG_variable
    2243                      .dwattr $C$DW$173, DW_AT_name("sf")
    2244                      .dwattr $C$DW$173, DW_AT_TI_symbol_name("_sf")
    2245                      .dwattr $C$DW$173, DW_AT_type(*$C$DW$T$93)
    2246                      .dwattr $C$DW$173, DW_AT_location[DW_OP_reg6]
    2247              
    2248                      .dwcfi  cfa_offset, -2
    2249                      .dwcfi  save_reg_to_mem, 26, 0
    2250 0000035b B2BD          MOVL      *SP++,XAR1            ; [CPU_] 
    2251                      .dwcfi  save_reg_to_mem, 7, 2
    2252                      .dwcfi  cfa_offset, -4
    2253                      .dwpsn  file "../src/user.c",line 973,column 3,is_stmt,isa 0
    2254 0000035c D018          MOVB      XAR0,#24              ; [CPU_] |973| 
    2255                      .dwpsn  file "../src/user.c",line 970,column 1,is_stmt,isa 0
    2256 0000035d 8BA9          MOVL      XAR1,ACC              ; [CPU_] |970| 
    2257                      .dwpsn  file "../src/user.c",line 973,column 3,is_stmt,isa 0
    2258 0000035e 8A94          MOVL      XAR4,*+XAR4[AR0]      ; [CPU_] |973| 
    2259              $C$DW$174       .dwtag  DW_TAG_TI_branch
    2260                      .dwattr $C$DW$174, DW_AT_low_pc(0x00)
    2261                      .dwattr $C$DW$174, DW_AT_name("_EST_getFlux_pu")
    2262                      .dwattr $C$DW$174, DW_AT_TI_call
    2263              
    2264 0000035f 7640!         LCR       #_EST_getFlux_pu      ; [CPU_] |973| 
         00000360 0000 
    2265                      ; call occurs [#_EST_getFlux_pu] ; [] |973| 
    2266 00000361 1EAC          MOVL      XT,ACC                ; [CPU_] |973| 
    2267 00000362 5605          IMPYL     P,XT,XAR1             ; [CPU_] |973| 
         00000363 00A1 
    2268 00000364 5663          QMPYL     ACC,XT,XAR1           ; [CPU_] |973| 
         00000365 00A1 
    2269 00000366 56A7          LSL64     ACC:P,#8              ; [CPU_] |973| 
    2270 00000367 8BBE          MOVL      XAR1,*--SP            ; [CPU_] 
    2271                      .dwcfi  cfa_offset, -2
    2272                      .dwcfi  restore_reg, 7
TMS320C2000 Assembler PC v16.9.6 Sun Jan 28 18:08:28 2018

Tools Copyright (c) 1996-2017 Texas Instruments Incorporated
C:\Users\Zulolo\AppData\Local\Temp\{7EDDBB07-3A94-4F89-8653-32F0EC9EC6F3} PAGE   46

    2273              $C$DW$175       .dwtag  DW_TAG_TI_branch
    2274                      .dwattr $C$DW$175, DW_AT_low_pc(0x00)
    2275                      .dwattr $C$DW$175, DW_AT_TI_return
    2276              
    2277 00000368 0006          LRETR     ; [CPU_] 
    2278                      ; return occurs ; [] 
    2279                      .dwattr $C$DW$169, DW_AT_TI_end_file("../src/user.c")
    2280                      .dwattr $C$DW$169, DW_AT_TI_end_line(0x3ce)
    2281                      .dwattr $C$DW$169, DW_AT_TI_end_column(0x01)
    2282                      .dwendentry
    2283                      .dwendtag $C$DW$169
    2284              
    2285 00000369               .sect   ".text"
    2286                      .clink
    2287                      .global _USER_checkForErrors
    2288              
    2289              $C$DW$176       .dwtag  DW_TAG_subprogram
    2290                      .dwattr $C$DW$176, DW_AT_name("USER_checkForErrors")
    2291                      .dwattr $C$DW$176, DW_AT_low_pc(_USER_checkForErrors)
    2292                      .dwattr $C$DW$176, DW_AT_high_pc(0x00)
    2293                      .dwattr $C$DW$176, DW_AT_TI_symbol_name("_USER_checkForErrors")
    2294                      .dwattr $C$DW$176, DW_AT_external
    2295                      .dwattr $C$DW$176, DW_AT_TI_begin_file("../src/user.c")
    2296                      .dwattr $C$DW$176, DW_AT_TI_begin_line(0xc5)
    2297                      .dwattr $C$DW$176, DW_AT_TI_begin_column(0x06)
    2298                      .dwattr $C$DW$176, DW_AT_TI_max_frame_size(-2)
    2299                      .dwpsn  file "../src/user.c",line 198,column 1,is_stmt,address _USER_checkForErrors,isa 0
    2300              
    2301                      .dwfde $C$DW$CIE, _USER_checkForErrors
    2302              $C$DW$177       .dwtag  DW_TAG_formal_parameter
    2303                      .dwattr $C$DW$177, DW_AT_name("pUserParams")
    2304                      .dwattr $C$DW$177, DW_AT_TI_symbol_name("_pUserParams")
    2305                      .dwattr $C$DW$177, DW_AT_type(*$C$DW$T$79)
    2306                      .dwattr $C$DW$177, DW_AT_location[DW_OP_reg12]
    2307              
    2308              
    2309              ;***************************************************************
    2310              ;* FNAME: _USER_checkForErrors          FR SIZE:   0           *
    2311              ;*                                                             *
    2312              ;* FUNCTION ENVIRONMENT                                        *
    2313              ;*                                                             *
    2314              ;* FUNCTION PROPERTIES                                         *
    2315              ;*                            0 Parameter,  0 Auto,  0 SOE     *
    2316              ;***************************************************************
    2317              
    2318 00000369       _USER_checkForErrors:
    2319                      .dwcfi  cfa_offset, -2
    2320                      .dwcfi  save_reg_to_mem, 26, 0
    2321                      .dwpsn  file "../src/user.c",line 199,column 3,is_stmt,isa 0
    2322 00000369 9A00          MOVB      AL,#0                 ; [CPU_] |199| 
    2323              $C$DW$178       .dwtag  DW_TAG_TI_branch
    2324                      .dwattr $C$DW$178, DW_AT_low_pc(0x00)
    2325                      .dwattr $C$DW$178, DW_AT_name("_USER_setErrorCode")
    2326                      .dwattr $C$DW$178, DW_AT_TI_call
    2327              
TMS320C2000 Assembler PC v16.9.6 Sun Jan 28 18:08:28 2018

Tools Copyright (c) 1996-2017 Texas Instruments Incorporated
C:\Users\Zulolo\AppData\Local\Temp\{7EDDBB07-3A94-4F89-8653-32F0EC9EC6F3} PAGE   47

    2328 0000036a 7640'         LCR       #_USER_setErrorCode   ; [CPU_] |199| 
         0000036b 01C2 
    2329                      ; call occurs [#_USER_setErrorCode] ; [] |199| 
    2330              $C$DW$179       .dwtag  DW_TAG_TI_branch
    2331                      .dwattr $C$DW$179, DW_AT_low_pc(0x00)
    2332                      .dwattr $C$DW$179, DW_AT_TI_return
    2333              
    2334 0000036c 0006          LRETR     ; [CPU_] 
    2335                      ; return occurs ; [] 
    2336                      .dwattr $C$DW$176, DW_AT_TI_end_file("../src/user.c")
    2337                      .dwattr $C$DW$176, DW_AT_TI_end_line(0x332)
    2338                      .dwattr $C$DW$176, DW_AT_TI_end_column(0x01)
    2339                      .dwendentry
    2340                      .dwendtag $C$DW$176
    2341              
    2342 0000036d               .sect   ".text"
    2343                      .clink
    2344                      .global _USER_calcPIgains
    2345              
    2346              $C$DW$180       .dwtag  DW_TAG_subprogram
    2347                      .dwattr $C$DW$180, DW_AT_name("USER_calcPIgains")
    2348                      .dwattr $C$DW$180, DW_AT_low_pc(_USER_calcPIgains)
    2349                      .dwattr $C$DW$180, DW_AT_high_pc(0x00)
    2350                      .dwattr $C$DW$180, DW_AT_TI_symbol_name("_USER_calcPIgains")
    2351                      .dwattr $C$DW$180, DW_AT_external
    2352                      .dwattr $C$DW$180, DW_AT_TI_begin_file("../src/user.c")
    2353                      .dwattr $C$DW$180, DW_AT_TI_begin_line(0x359)
    2354                      .dwattr $C$DW$180, DW_AT_TI_begin_column(0x06)
    2355                      .dwattr $C$DW$180, DW_AT_TI_max_frame_size(-30)
    2356                      .dwpsn  file "../src/user.c",line 858,column 1,is_stmt,address _USER_calcPIgains,isa 0
    2357              
    2358                      .dwfde $C$DW$CIE, _USER_calcPIgains
    2359              $C$DW$181       .dwtag  DW_TAG_formal_parameter
    2360                      .dwattr $C$DW$181, DW_AT_name("handle")
    2361                      .dwattr $C$DW$181, DW_AT_TI_symbol_name("_handle")
    2362                      .dwattr $C$DW$181, DW_AT_type(*$C$DW$T$87)
    2363                      .dwattr $C$DW$181, DW_AT_location[DW_OP_reg12]
    2364              
    2365              
    2366              ;***************************************************************
    2367              ;* FNAME: _USER_calcPIgains             FR SIZE:  28           *
    2368              ;*                                                             *
    2369              ;* FUNCTION ENVIRONMENT                                        *
    2370              ;*                                                             *
    2371              ;* FUNCTION PROPERTIES                                         *
    2372              ;*                            4 Parameter, 18 Auto,  6 SOE     *
    2373              ;***************************************************************
    2374              
    2375              _USER_calcPIgains:
    2376              ;* AR1   assigned to $O$C1
    2377              ;* AR3   assigned to _handle
    2378              $C$DW$182       .dwtag  DW_TAG_variable
    2379                      .dwattr $C$DW$182, DW_AT_name("handle")
    2380                      .dwattr $C$DW$182, DW_AT_TI_symbol_name("_handle")
    2381                      .dwattr $C$DW$182, DW_AT_type(*$C$DW$T$88)
TMS320C2000 Assembler PC v16.9.6 Sun Jan 28 18:08:28 2018

Tools Copyright (c) 1996-2017 Texas Instruments Incorporated
C:\Users\Zulolo\AppData\Local\Temp\{7EDDBB07-3A94-4F89-8653-32F0EC9EC6F3} PAGE   48

    2382                      .dwattr $C$DW$182, DW_AT_location[DW_OP_reg10]
    2383              
    2384              $C$DW$183       .dwtag  DW_TAG_variable
    2385                      .dwattr $C$DW$183, DW_AT_name("ctrlPeriod_sec")
    2386                      .dwattr $C$DW$183, DW_AT_TI_symbol_name("_ctrlPeriod_sec")
    2387                      .dwattr $C$DW$183, DW_AT_type(*$C$DW$T$54)
    2388                      .dwattr $C$DW$183, DW_AT_location[DW_OP_breg20 -14]
    2389              
    2390              ;* AR2   assigned to _Ls_d
    2391              $C$DW$184       .dwtag  DW_TAG_variable
    2392                      .dwattr $C$DW$184, DW_AT_name("Ls_d")
    2393                      .dwattr $C$DW$184, DW_AT_TI_symbol_name("_Ls_d")
    2394                      .dwattr $C$DW$184, DW_AT_type(*$C$DW$T$54)
    2395                      .dwattr $C$DW$184, DW_AT_location[DW_OP_reg8]
    2396              
    2397              $C$DW$185       .dwtag  DW_TAG_variable
    2398                      .dwattr $C$DW$185, DW_AT_name("Ls_q")
    2399                      .dwattr $C$DW$185, DW_AT_TI_symbol_name("_Ls_q")
    2400                      .dwattr $C$DW$185, DW_AT_type(*$C$DW$T$54)
    2401                      .dwattr $C$DW$185, DW_AT_location[DW_OP_breg20 -16]
    2402              
    2403              $C$DW$186       .dwtag  DW_TAG_variable
    2404                      .dwattr $C$DW$186, DW_AT_name("Rs")
    2405                      .dwattr $C$DW$186, DW_AT_TI_symbol_name("_Rs")
    2406                      .dwattr $C$DW$186, DW_AT_type(*$C$DW$T$54)
    2407                      .dwattr $C$DW$186, DW_AT_location[DW_OP_breg20 -18]
    2408              
    2409              $C$DW$187       .dwtag  DW_TAG_variable
    2410                      .dwattr $C$DW$187, DW_AT_name("Kp_Id")
    2411                      .dwattr $C$DW$187, DW_AT_TI_symbol_name("_Kp_Id")
    2412                      .dwattr $C$DW$187, DW_AT_type(*$C$DW$T$20)
    2413                      .dwattr $C$DW$187, DW_AT_location[DW_OP_breg20 -20]
    2414              
    2415              ;* AR2   assigned to _Ki_Id
    2416              $C$DW$188       .dwtag  DW_TAG_variable
    2417                      .dwattr $C$DW$188, DW_AT_name("Ki_Id")
    2418                      .dwattr $C$DW$188, DW_AT_TI_symbol_name("_Ki_Id")
    2419                      .dwattr $C$DW$188, DW_AT_type(*$C$DW$T$20)
    2420                      .dwattr $C$DW$188, DW_AT_location[DW_OP_reg8]
    2421              
    2422              $C$DW$189       .dwtag  DW_TAG_variable
    2423                      .dwattr $C$DW$189, DW_AT_name("Kp_Iq")
    2424                      .dwattr $C$DW$189, DW_AT_TI_symbol_name("_Kp_Iq")
    2425                      .dwattr $C$DW$189, DW_AT_type(*$C$DW$T$20)
    2426                      .dwattr $C$DW$189, DW_AT_location[DW_OP_breg20 -22]
    2427              
    2428              ;* AR1   assigned to _Ki_Iq
    2429              $C$DW$190       .dwtag  DW_TAG_variable
    2430                      .dwattr $C$DW$190, DW_AT_name("Ki_Iq")
    2431                      .dwattr $C$DW$190, DW_AT_TI_symbol_name("_Ki_Iq")
    2432                      .dwattr $C$DW$190, DW_AT_type(*$C$DW$T$20)
    2433                      .dwattr $C$DW$190, DW_AT_location[DW_OP_reg6]
    2434              
    2435                      .dwcfi  cfa_offset, -2
    2436                      .dwcfi  save_reg_to_mem, 26, 0
TMS320C2000 Assembler PC v16.9.6 Sun Jan 28 18:08:28 2018

Tools Copyright (c) 1996-2017 Texas Instruments Incorporated
C:\Users\Zulolo\AppData\Local\Temp\{7EDDBB07-3A94-4F89-8653-32F0EC9EC6F3} PAGE   49

    2437 0000036d B2BD          MOVL      *SP++,XAR1            ; [CPU_] 
    2438                      .dwcfi  save_reg_to_mem, 7, 2
    2439                      .dwcfi  cfa_offset, -4
    2440 0000036e AABD          MOVL      *SP++,XAR2            ; [CPU_] 
    2441                      .dwcfi  save_reg_to_mem, 9, 4
    2442                      .dwcfi  cfa_offset, -6
    2443 0000036f A2BD          MOVL      *SP++,XAR3            ; [CPU_] 
    2444                      .dwcfi  save_reg_to_mem, 11, 6
    2445                      .dwcfi  cfa_offset, -8
    2446 00000370 FE16          ADDB      SP,#22                ; [CPU_U] 
    2447                      .dwcfi  cfa_offset, -30
    2448 00000371 82A4          MOVL      XAR3,XAR4             ; [CPU_] |858| 
    2449                      .dwpsn  file "D:/ti/motorware/motorware_1_01_00_18/sw/modules/ctrl/src/32b/ctrl.h",line 165,column 3,
    2450 00000372 D0A6          MOVB      XAR0,#166             ; [CPU_] |165| 
    2451 00000373 8B93          MOVL      XAR1,*+XAR3[AR0]      ; [CPU_] |165| 
    2452                      .dwpsn  file "../src/user.c",line 888,column 3,is_stmt,isa 0
    2453 00000374 D018          MOVB      XAR0,#24              ; [CPU_] |888| 
    2454                      .dwpsn  file "D:/ti/motorware/motorware_1_01_00_18/sw/modules/ctrl/src/32b/ctrl.h",line 165,column 3,
    2455 00000375 B24E          MOVL      *-SP[14],XAR1         ; [CPU_] |165| 
    2456                      .dwpsn  file "../src/user.c",line 888,column 3,is_stmt,isa 0
    2457 00000376 8A93          MOVL      XAR4,*+XAR3[AR0]      ; [CPU_] |888| 
    2458              $C$DW$191       .dwtag  DW_TAG_TI_branch
    2459                      .dwattr $C$DW$191, DW_AT_low_pc(0x00)
    2460                      .dwattr $C$DW$191, DW_AT_name("_EST_getLs_d_H")
    2461                      .dwattr $C$DW$191, DW_AT_TI_call
    2462              
    2463 00000377 7640!         LCR       #_EST_getLs_d_H       ; [CPU_] |888| 
         00000378 0000 
    2464                      ; call occurs [#_EST_getLs_d_H] ; [] |888| 
    2465                      .dwpsn  file "../src/user.c",line 890,column 3,is_stmt,isa 0
    2466 00000379 D018          MOVB      XAR0,#24              ; [CPU_] |890| 
    2467                      .dwpsn  file "../src/user.c",line 888,column 3,is_stmt,isa 0
    2468 0000037a 86A9          MOVL      XAR2,ACC              ; [CPU_] |888| 
    2469                      .dwpsn  file "../src/user.c",line 890,column 3,is_stmt,isa 0
    2470 0000037b 8A93          MOVL      XAR4,*+XAR3[AR0]      ; [CPU_] |890| 
    2471              $C$DW$192       .dwtag  DW_TAG_TI_branch
    2472                      .dwattr $C$DW$192, DW_AT_low_pc(0x00)
    2473                      .dwattr $C$DW$192, DW_AT_name("_EST_getLs_q_H")
    2474                      .dwattr $C$DW$192, DW_AT_TI_call
    2475              
    2476 0000037c 7640!         LCR       #_EST_getLs_q_H       ; [CPU_] |890| 
         0000037d 0000 
    2477                      ; call occurs [#_EST_getLs_q_H] ; [] |890| 
    2478                      .dwpsn  file "../src/user.c",line 892,column 3,is_stmt,isa 0
    2479 0000037e D018          MOVB      XAR0,#24              ; [CPU_] |892| 
    2480                      .dwpsn  file "../src/user.c",line 890,column 3,is_stmt,isa 0
    2481 0000037f 1E50          MOVL      *-SP[16],ACC          ; [CPU_] |890| 
    2482                      .dwpsn  file "../src/user.c",line 892,column 3,is_stmt,isa 0
    2483 00000380 8A93          MOVL      XAR4,*+XAR3[AR0]      ; [CPU_] |892| 
    2484              $C$DW$193       .dwtag  DW_TAG_TI_branch
    2485                      .dwattr $C$DW$193, DW_AT_low_pc(0x00)
    2486                      .dwattr $C$DW$193, DW_AT_name("_EST_getRs_Ohm")
    2487                      .dwattr $C$DW$193, DW_AT_TI_call
    2488              
    2489 00000381 7640!         LCR       #_EST_getRs_Ohm       ; [CPU_] |892| 
TMS320C2000 Assembler PC v16.9.6 Sun Jan 28 18:08:28 2018

Tools Copyright (c) 1996-2017 Texas Instruments Incorporated
C:\Users\Zulolo\AppData\Local\Temp\{7EDDBB07-3A94-4F89-8653-32F0EC9EC6F3} PAGE   50

         00000382 0000 
    2490                      ; call occurs [#_EST_getRs_Ohm] ; [] |892| 
    2491 00000383 1E52          MOVL      *-SP[18],ACC          ; [CPU_] |892| 
    2492                      .dwpsn  file "../src/user.c",line 896,column 3,is_stmt,isa 0
    2493 00000384 9A00          MOV       AL,#0                 ; [CPU_] |896| 
    2494 00000385 28A8          MOV       AH,#16832             ; [CPU_] |896| 
         00000386 41C0 
    2495 00000387 1E42          MOVL      *-SP[2],ACC           ; [CPU_] |896| 
    2496 00000388 B2A9          MOVL      ACC,XAR1              ; [CPU_] |896| 
    2497              $C$DW$194       .dwtag  DW_TAG_TI_branch
    2498                      .dwattr $C$DW$194, DW_AT_low_pc(0x00)
    2499                      .dwattr $C$DW$194, DW_AT_name("FS$$MPY")
    2500                      .dwattr $C$DW$194, DW_AT_TI_call
    2501              
    2502 00000389 7640!         LCR       #FS$$MPY              ; [CPU_] |896| 
         0000038a 0000 
    2503                      ; call occurs [#FS$$MPY] ; [] |896| 
    2504 0000038b 8BA9          MOVL      XAR1,ACC              ; [CPU_] |896| 
    2505 0000038c FF2F          MOV       ACC,#32000 << 15      ; [CPU_] |896| 
         0000038d 7D00 
    2506 0000038e 1E42          MOVL      *-SP[2],ACC           ; [CPU_] |896| 
    2507 0000038f AAA9          MOVL      ACC,XAR2              ; [CPU_] |896| 
    2508              $C$DW$195       .dwtag  DW_TAG_TI_branch
    2509                      .dwattr $C$DW$195, DW_AT_low_pc(0x00)
    2510                      .dwattr $C$DW$195, DW_AT_name("FS$$MPY")
    2511                      .dwattr $C$DW$195, DW_AT_TI_call
    2512              
    2513 00000390 7640!         LCR       #FS$$MPY              ; [CPU_] |896| 
         00000391 0000 
    2514                      ; call occurs [#FS$$MPY] ; [] |896| 
    2515 00000392 1EA6          MOVL      XAR6,ACC              ; [CPU_] |896| 
    2516 00000393 9A00          MOV       AL,#0                 ; [CPU_] |896| 
    2517 00000394 28A8          MOV       AH,#16832             ; [CPU_] |896| 
         00000395 41C0 
    2518 00000396 1E42          MOVL      *-SP[2],ACC           ; [CPU_] |896| 
    2519 00000397 06A6          MOVL      ACC,XAR6              ; [CPU_] |896| 
    2520              $C$DW$196       .dwtag  DW_TAG_TI_branch
    2521                      .dwattr $C$DW$196, DW_AT_low_pc(0x00)
    2522                      .dwattr $C$DW$196, DW_AT_name("FS$$MPY")
    2523                      .dwattr $C$DW$196, DW_AT_TI_call
    2524              
    2525 00000398 7640!         LCR       #FS$$MPY              ; [CPU_] |896| 
         00000399 0000 
    2526                      ; call occurs [#FS$$MPY] ; [] |896| 
    2527 0000039a B242          MOVL      *-SP[2],XAR1          ; [CPU_] |896| 
    2528              $C$DW$197       .dwtag  DW_TAG_TI_branch
    2529                      .dwattr $C$DW$197, DW_AT_low_pc(0x00)
    2530                      .dwattr $C$DW$197, DW_AT_name("FS$$DIV")
    2531                      .dwattr $C$DW$197, DW_AT_TI_call
    2532              
    2533 0000039b 7640!         LCR       #FS$$DIV              ; [CPU_] |896| 
         0000039c 0000 
    2534                      ; call occurs [#FS$$DIV] ; [] |896| 
    2535 0000039d 5CAD          MOVZ      AR4,SP                ; [CPU_] |896| 
    2536 0000039e DC8C          SUBB      XAR4,#12              ; [CPU_U] |896| 
TMS320C2000 Assembler PC v16.9.6 Sun Jan 28 18:08:28 2018

Tools Copyright (c) 1996-2017 Texas Instruments Incorporated
C:\Users\Zulolo\AppData\Local\Temp\{7EDDBB07-3A94-4F89-8653-32F0EC9EC6F3} PAGE   51

    2537 0000039f 88A4          MOVZ      AR6,AR4               ; [CPU_] |896| 
    2538              $C$DW$198       .dwtag  DW_TAG_TI_branch
    2539                      .dwattr $C$DW$198, DW_AT_low_pc(0x00)
    2540                      .dwattr $C$DW$198, DW_AT_name("FS$$TOFD")
    2541                      .dwattr $C$DW$198, DW_AT_TI_call
    2542              
    2543 000003a0 7640!         LCR       #FS$$TOFD             ; [CPU_] |896| 
         000003a1 0000 
    2544                      ; call occurs [#FS$$TOFD] ; [] |896| 
    2545 000003a2 5DAD          MOVZ      AR5,SP                ; [CPU_] |896| 
    2546 000003a3 5CAD          MOVZ      AR4,SP                ; [CPU_] |896| 
    2547 000003a4 DD88          SUBB      XAR5,#8               ; [CPU_U] |896| 
    2548 000003a5 DC8C          SUBB      XAR4,#12              ; [CPU_U] |896| 
    2549 000003a6 88A5          MOVZ      AR6,AR5               ; [CPU_] |896| 
    2550 000003a7 5CA4          MOVZ      AR4,AR4               ; [CPU_] |896| 
    2551 000003a8 8F40+         MOVL      XAR5,#$C$FL2          ; [CPU_U] |896| 
         000003a9 0004 
    2552              $C$DW$199       .dwtag  DW_TAG_TI_branch
    2553                      .dwattr $C$DW$199, DW_AT_low_pc(0x00)
    2554                      .dwattr $C$DW$199, DW_AT_name("FD$$MPY")
    2555                      .dwattr $C$DW$199, DW_AT_TI_call
    2556              
    2557 000003aa 7640!         LCR       #FD$$MPY              ; [CPU_] |896| 
         000003ab 0000 
    2558                      ; call occurs [#FD$$MPY] ; [] |896| 
    2559 000003ac 5CAD          MOVZ      AR4,SP                ; [CPU_] |896| 
    2560 000003ad DC88          SUBB      XAR4,#8               ; [CPU_U] |896| 
    2561 000003ae 5CA4          MOVZ      AR4,AR4               ; [CPU_] |896| 
    2562              $C$DW$200       .dwtag  DW_TAG_TI_branch
    2563                      .dwattr $C$DW$200, DW_AT_low_pc(0x00)
    2564                      .dwattr $C$DW$200, DW_AT_name("FD$$TOL")
    2565                      .dwattr $C$DW$200, DW_AT_TI_call
    2566              
    2567 000003af 7640!         LCR       #FD$$TOL              ; [CPU_] |896| 
         000003b0 0000 
    2568                      ; call occurs [#FD$$TOL] ; [] |896| 
    2569 000003b1 1E54          MOVL      *-SP[20],ACC          ; [CPU_] |896| 
    2570                      .dwpsn  file "../src/user.c",line 897,column 3,is_stmt,isa 0
    2571 000003b2 AA42          MOVL      *-SP[2],XAR2          ; [CPU_] |897| 
    2572 000003b3 0652          MOVL      ACC,*-SP[18]          ; [CPU_] |897| 
    2573              $C$DW$201       .dwtag  DW_TAG_TI_branch
    2574                      .dwattr $C$DW$201, DW_AT_low_pc(0x00)
    2575                      .dwattr $C$DW$201, DW_AT_name("FS$$DIV")
    2576                      .dwattr $C$DW$201, DW_AT_TI_call
    2577              
    2578 000003b4 7640!         LCR       #FS$$DIV              ; [CPU_] |897| 
         000003b5 0000 
    2579                      ; call occurs [#FS$$DIV] ; [] |897| 
    2580 000003b6 C44E          MOVL      XAR6,*-SP[14]         ; [CPU_] |897| 
    2581 000003b7 C242          MOVL      *-SP[2],XAR6          ; [CPU_] |897| 
    2582              $C$DW$202       .dwtag  DW_TAG_TI_branch
    2583                      .dwattr $C$DW$202, DW_AT_low_pc(0x00)
    2584                      .dwattr $C$DW$202, DW_AT_name("FS$$MPY")
    2585                      .dwattr $C$DW$202, DW_AT_TI_call
    2586              
TMS320C2000 Assembler PC v16.9.6 Sun Jan 28 18:08:28 2018

Tools Copyright (c) 1996-2017 Texas Instruments Incorporated
C:\Users\Zulolo\AppData\Local\Temp\{7EDDBB07-3A94-4F89-8653-32F0EC9EC6F3} PAGE   52

    2587 000003b8 7640!         LCR       #FS$$MPY              ; [CPU_] |897| 
         000003b9 0000 
    2588                      ; call occurs [#FS$$MPY] ; [] |897| 
    2589 000003ba 5CAD          MOVZ      AR4,SP                ; [CPU_] |897| 
    2590 000003bb DC8C          SUBB      XAR4,#12              ; [CPU_U] |897| 
    2591 000003bc 88A4          MOVZ      AR6,AR4               ; [CPU_] |897| 
    2592              $C$DW$203       .dwtag  DW_TAG_TI_branch
    2593                      .dwattr $C$DW$203, DW_AT_low_pc(0x00)
    2594                      .dwattr $C$DW$203, DW_AT_name("FS$$TOFD")
    2595                      .dwattr $C$DW$203, DW_AT_TI_call
    2596              
    2597 000003bd 7640!         LCR       #FS$$TOFD             ; [CPU_] |897| 
         000003be 0000 
    2598                      ; call occurs [#FS$$TOFD] ; [] |897| 
    2599 000003bf 5DAD          MOVZ      AR5,SP                ; [CPU_] |897| 
    2600 000003c0 5CAD          MOVZ      AR4,SP                ; [CPU_] |897| 
    2601 000003c1 DD88          SUBB      XAR5,#8               ; [CPU_U] |897| 
    2602 000003c2 DC8C          SUBB      XAR4,#12              ; [CPU_U] |897| 
    2603 000003c3 88A5          MOVZ      AR6,AR5               ; [CPU_] |897| 
    2604 000003c4 5CA4          MOVZ      AR4,AR4               ; [CPU_] |897| 
    2605 000003c5 8F40+         MOVL      XAR5,#$C$FL2          ; [CPU_U] |897| 
         000003c6 0004 
    2606              $C$DW$204       .dwtag  DW_TAG_TI_branch
    2607                      .dwattr $C$DW$204, DW_AT_low_pc(0x00)
    2608                      .dwattr $C$DW$204, DW_AT_name("FD$$MPY")
    2609                      .dwattr $C$DW$204, DW_AT_TI_call
    2610              
    2611 000003c7 7640!         LCR       #FD$$MPY              ; [CPU_] |897| 
         000003c8 0000 
    2612                      ; call occurs [#FD$$MPY] ; [] |897| 
    2613 000003c9 5CAD          MOVZ      AR4,SP                ; [CPU_] |897| 
    2614 000003ca DC88          SUBB      XAR4,#8               ; [CPU_U] |897| 
    2615 000003cb 5CA4          MOVZ      AR4,AR4               ; [CPU_] |897| 
    2616              $C$DW$205       .dwtag  DW_TAG_TI_branch
    2617                      .dwattr $C$DW$205, DW_AT_low_pc(0x00)
    2618                      .dwattr $C$DW$205, DW_AT_name("FD$$TOL")
    2619                      .dwattr $C$DW$205, DW_AT_TI_call
    2620              
    2621 000003cc 7640!         LCR       #FD$$TOL              ; [CPU_] |897| 
         000003cd 0000 
    2622                      ; call occurs [#FD$$TOL] ; [] |897| 
    2623 000003ce 86A9          MOVL      XAR2,ACC              ; [CPU_] |897| 
    2624                      .dwpsn  file "../src/user.c",line 900,column 3,is_stmt,isa 0
    2625 000003cf FF2F          MOV       ACC,#32000 << 15      ; [CPU_] |900| 
         000003d0 7D00 
    2626 000003d1 1E42          MOVL      *-SP[2],ACC           ; [CPU_] |900| 
    2627 000003d2 0650          MOVL      ACC,*-SP[16]          ; [CPU_] |900| 
    2628              $C$DW$206       .dwtag  DW_TAG_TI_branch
    2629                      .dwattr $C$DW$206, DW_AT_low_pc(0x00)
    2630                      .dwattr $C$DW$206, DW_AT_name("FS$$MPY")
    2631                      .dwattr $C$DW$206, DW_AT_TI_call
    2632              
    2633 000003d3 7640!         LCR       #FS$$MPY              ; [CPU_] |900| 
         000003d4 0000 
    2634                      ; call occurs [#FS$$MPY] ; [] |900| 
TMS320C2000 Assembler PC v16.9.6 Sun Jan 28 18:08:28 2018

Tools Copyright (c) 1996-2017 Texas Instruments Incorporated
C:\Users\Zulolo\AppData\Local\Temp\{7EDDBB07-3A94-4F89-8653-32F0EC9EC6F3} PAGE   53

    2635 000003d5 1EA6          MOVL      XAR6,ACC              ; [CPU_] |900| 
    2636 000003d6 9A00          MOV       AL,#0                 ; [CPU_] |900| 
    2637 000003d7 28A8          MOV       AH,#16832             ; [CPU_] |900| 
         000003d8 41C0 
    2638 000003d9 1E42          MOVL      *-SP[2],ACC           ; [CPU_] |900| 
    2639 000003da 06A6          MOVL      ACC,XAR6              ; [CPU_] |900| 
    2640              $C$DW$207       .dwtag  DW_TAG_TI_branch
    2641                      .dwattr $C$DW$207, DW_AT_low_pc(0x00)
    2642                      .dwattr $C$DW$207, DW_AT_name("FS$$MPY")
    2643                      .dwattr $C$DW$207, DW_AT_TI_call
    2644              
    2645 000003db 7640!         LCR       #FS$$MPY              ; [CPU_] |900| 
         000003dc 0000 
    2646                      ; call occurs [#FS$$MPY] ; [] |900| 
    2647 000003dd B242          MOVL      *-SP[2],XAR1          ; [CPU_] |900| 
    2648              $C$DW$208       .dwtag  DW_TAG_TI_branch
    2649                      .dwattr $C$DW$208, DW_AT_low_pc(0x00)
    2650                      .dwattr $C$DW$208, DW_AT_name("FS$$DIV")
    2651                      .dwattr $C$DW$208, DW_AT_TI_call
    2652              
    2653 000003de 7640!         LCR       #FS$$DIV              ; [CPU_] |900| 
         000003df 0000 
    2654                      ; call occurs [#FS$$DIV] ; [] |900| 
    2655 000003e0 5CAD          MOVZ      AR4,SP                ; [CPU_] |900| 
    2656 000003e1 DC8C          SUBB      XAR4,#12              ; [CPU_U] |900| 
    2657 000003e2 88A4          MOVZ      AR6,AR4               ; [CPU_] |900| 
    2658              $C$DW$209       .dwtag  DW_TAG_TI_branch
    2659                      .dwattr $C$DW$209, DW_AT_low_pc(0x00)
    2660                      .dwattr $C$DW$209, DW_AT_name("FS$$TOFD")
    2661                      .dwattr $C$DW$209, DW_AT_TI_call
    2662              
    2663 000003e3 7640!         LCR       #FS$$TOFD             ; [CPU_] |900| 
         000003e4 0000 
    2664                      ; call occurs [#FS$$TOFD] ; [] |900| 
    2665 000003e5 5DAD          MOVZ      AR5,SP                ; [CPU_] |900| 
    2666 000003e6 5CAD          MOVZ      AR4,SP                ; [CPU_] |900| 
    2667 000003e7 DD88          SUBB      XAR5,#8               ; [CPU_U] |900| 
    2668 000003e8 DC8C          SUBB      XAR4,#12              ; [CPU_U] |900| 
    2669 000003e9 88A5          MOVZ      AR6,AR5               ; [CPU_] |900| 
    2670 000003ea 5CA4          MOVZ      AR4,AR4               ; [CPU_] |900| 
    2671 000003eb 8F40+         MOVL      XAR5,#$C$FL2          ; [CPU_U] |900| 
         000003ec 0004 
    2672              $C$DW$210       .dwtag  DW_TAG_TI_branch
    2673                      .dwattr $C$DW$210, DW_AT_low_pc(0x00)
    2674                      .dwattr $C$DW$210, DW_AT_name("FD$$MPY")
    2675                      .dwattr $C$DW$210, DW_AT_TI_call
    2676              
    2677 000003ed 7640!         LCR       #FD$$MPY              ; [CPU_] |900| 
         000003ee 0000 
    2678                      ; call occurs [#FD$$MPY] ; [] |900| 
    2679 000003ef 5CAD          MOVZ      AR4,SP                ; [CPU_] |900| 
    2680 000003f0 DC88          SUBB      XAR4,#8               ; [CPU_U] |900| 
    2681 000003f1 5CA4          MOVZ      AR4,AR4               ; [CPU_] |900| 
    2682              $C$DW$211       .dwtag  DW_TAG_TI_branch
    2683                      .dwattr $C$DW$211, DW_AT_low_pc(0x00)
TMS320C2000 Assembler PC v16.9.6 Sun Jan 28 18:08:28 2018

Tools Copyright (c) 1996-2017 Texas Instruments Incorporated
C:\Users\Zulolo\AppData\Local\Temp\{7EDDBB07-3A94-4F89-8653-32F0EC9EC6F3} PAGE   54

    2684                      .dwattr $C$DW$211, DW_AT_name("FD$$TOL")
    2685                      .dwattr $C$DW$211, DW_AT_TI_call
    2686              
    2687 000003f2 7640!         LCR       #FD$$TOL              ; [CPU_] |900| 
         000003f3 0000 
    2688                      ; call occurs [#FD$$TOL] ; [] |900| 
    2689 000003f4 1E56          MOVL      *-SP[22],ACC          ; [CPU_] |900| 
    2690 000003f5 0650          MOVL      ACC,*-SP[16]          ; [CPU_] |900| 
    2691                      .dwpsn  file "../src/user.c",line 901,column 3,is_stmt,isa 0
    2692 000003f6 1E42          MOVL      *-SP[2],ACC           ; [CPU_] |901| 
    2693 000003f7 0652          MOVL      ACC,*-SP[18]          ; [CPU_] |901| 
    2694              $C$DW$212       .dwtag  DW_TAG_TI_branch
    2695                      .dwattr $C$DW$212, DW_AT_low_pc(0x00)
    2696                      .dwattr $C$DW$212, DW_AT_name("FS$$DIV")
    2697                      .dwattr $C$DW$212, DW_AT_TI_call
    2698              
    2699 000003f8 7640!         LCR       #FS$$DIV              ; [CPU_] |901| 
         000003f9 0000 
    2700                      ; call occurs [#FS$$DIV] ; [] |901| 
    2701 000003fa C44E          MOVL      XAR6,*-SP[14]         ; [CPU_] |901| 
    2702 000003fb C242          MOVL      *-SP[2],XAR6          ; [CPU_] |901| 
    2703              $C$DW$213       .dwtag  DW_TAG_TI_branch
    2704                      .dwattr $C$DW$213, DW_AT_low_pc(0x00)
    2705                      .dwattr $C$DW$213, DW_AT_name("FS$$MPY")
    2706                      .dwattr $C$DW$213, DW_AT_TI_call
    2707              
    2708 000003fc 7640!         LCR       #FS$$MPY              ; [CPU_] |901| 
         000003fd 0000 
    2709                      ; call occurs [#FS$$MPY] ; [] |901| 
    2710 000003fe 5CAD          MOVZ      AR4,SP                ; [CPU_] |901| 
    2711 000003ff DC8C          SUBB      XAR4,#12              ; [CPU_U] |901| 
    2712 00000400 88A4          MOVZ      AR6,AR4               ; [CPU_] |901| 
    2713              $C$DW$214       .dwtag  DW_TAG_TI_branch
    2714                      .dwattr $C$DW$214, DW_AT_low_pc(0x00)
    2715                      .dwattr $C$DW$214, DW_AT_name("FS$$TOFD")
    2716                      .dwattr $C$DW$214, DW_AT_TI_call
    2717              
    2718 00000401 7640!         LCR       #FS$$TOFD             ; [CPU_] |901| 
         00000402 0000 
    2719                      ; call occurs [#FS$$TOFD] ; [] |901| 
    2720 00000403 5DAD          MOVZ      AR5,SP                ; [CPU_] |901| 
    2721 00000404 5CAD          MOVZ      AR4,SP                ; [CPU_] |901| 
    2722 00000405 DD88          SUBB      XAR5,#8               ; [CPU_U] |901| 
    2723 00000406 DC8C          SUBB      XAR4,#12              ; [CPU_U] |901| 
    2724 00000407 88A5          MOVZ      AR6,AR5               ; [CPU_] |901| 
    2725 00000408 5CA4          MOVZ      AR4,AR4               ; [CPU_] |901| 
    2726 00000409 8F40+         MOVL      XAR5,#$C$FL2          ; [CPU_U] |901| 
         0000040a 0004 
    2727              $C$DW$215       .dwtag  DW_TAG_TI_branch
    2728                      .dwattr $C$DW$215, DW_AT_low_pc(0x00)
    2729                      .dwattr $C$DW$215, DW_AT_name("FD$$MPY")
    2730                      .dwattr $C$DW$215, DW_AT_TI_call
    2731              
    2732 0000040b 7640!         LCR       #FD$$MPY              ; [CPU_] |901| 
         0000040c 0000 
TMS320C2000 Assembler PC v16.9.6 Sun Jan 28 18:08:28 2018

Tools Copyright (c) 1996-2017 Texas Instruments Incorporated
C:\Users\Zulolo\AppData\Local\Temp\{7EDDBB07-3A94-4F89-8653-32F0EC9EC6F3} PAGE   55

    2733                      ; call occurs [#FD$$MPY] ; [] |901| 
    2734 0000040d 5CAD          MOVZ      AR4,SP                ; [CPU_] |901| 
    2735 0000040e DC88          SUBB      XAR4,#8               ; [CPU_U] |901| 
    2736 0000040f 5CA4          MOVZ      AR4,AR4               ; [CPU_] |901| 
    2737              $C$DW$216       .dwtag  DW_TAG_TI_branch
    2738                      .dwattr $C$DW$216, DW_AT_low_pc(0x00)
    2739                      .dwattr $C$DW$216, DW_AT_name("FD$$TOL")
    2740                      .dwattr $C$DW$216, DW_AT_TI_call
    2741              
    2742 00000410 7640!         LCR       #FD$$TOL              ; [CPU_] |901| 
         00000411 0000 
    2743                      ; call occurs [#FD$$TOL] ; [] |901| 
    2744                      .dwpsn  file "D:/ti/motorware/motorware_1_01_00_18/sw/modules/pid/src/32b/pid.h",line 333,column 3,is
    2745 00000412 D020          MOVB      XAR0,#32              ; [CPU_] |333| 
    2746 00000413 8A93          MOVL      XAR4,*+XAR3[AR0]      ; [CPU_] |333| 
    2747                      .dwpsn  file "../src/user.c",line 901,column 3,is_stmt,isa 0
    2748 00000414 8BA9          MOVL      XAR1,ACC              ; [CPU_] |901| 
    2749                      .dwpsn  file "../src/user.c",line 907,column 3,is_stmt,isa 0
    2750 00000415 D501          MOVB      XAR5,#1               ; [CPU_] |907| 
    2751 00000416 0200          MOVB      ACC,#0                ; [CPU_] |907| 
    2752                      .dwpsn  file "D:/ti/motorware/motorware_1_01_00_18/sw/modules/pid/src/32b/pid.h",line 333,column 3,is
    2753 00000417 AAD4          MOVL      *+XAR4[2],XAR2        ; [CPU_] |333| 
    2754                      .dwpsn  file "../src/user.c",line 907,column 3,is_stmt,isa 0
    2755 00000418 AA42          MOVL      *-SP[2],XAR2          ; [CPU_] |907| 
    2756 00000419 8AA3          MOVL      XAR4,XAR3             ; [CPU_] |907| 
    2757 0000041a 1E44          MOVL      *-SP[4],ACC           ; [CPU_] |907| 
    2758 0000041b 0654          MOVL      ACC,*-SP[20]          ; [CPU_] |907| 
    2759              $C$DW$217       .dwtag  DW_TAG_TI_branch
    2760                      .dwattr $C$DW$217, DW_AT_low_pc(0x00)
    2761                      .dwattr $C$DW$217, DW_AT_name("_CTRL_setGains")
    2762                      .dwattr $C$DW$217, DW_AT_TI_call
    2763              
    2764 0000041c 7640!         LCR       #_CTRL_setGains       ; [CPU_] |907| 
         0000041d 0000 
    2765                      ; call occurs [#_CTRL_setGains] ; [] |907| 
    2766                      .dwpsn  file "D:/ti/motorware/motorware_1_01_00_18/sw/modules/pid/src/32b/pid.h",line 333,column 3,is
    2767 0000041e D032          MOVB      XAR0,#50              ; [CPU_] |333| 
    2768 0000041f 8A93          MOVL      XAR4,*+XAR3[AR0]      ; [CPU_] |333| 
    2769                      .dwpsn  file "../src/user.c",line 911,column 3,is_stmt,isa 0
    2770 00000420 0200          MOVB      ACC,#0                ; [CPU_] |911| 
    2771 00000421 D502          MOVB      XAR5,#2               ; [CPU_] |911| 
    2772                      .dwpsn  file "D:/ti/motorware/motorware_1_01_00_18/sw/modules/pid/src/32b/pid.h",line 333,column 3,is
    2773 00000422 B2D4          MOVL      *+XAR4[2],XAR1        ; [CPU_] |333| 
    2774                      .dwpsn  file "../src/user.c",line 911,column 3,is_stmt,isa 0
    2775 00000423 8AA3          MOVL      XAR4,XAR3             ; [CPU_] |911| 
    2776 00000424 B242          MOVL      *-SP[2],XAR1          ; [CPU_] |911| 
    2777 00000425 1E44          MOVL      *-SP[4],ACC           ; [CPU_] |911| 
    2778 00000426 0656          MOVL      ACC,*-SP[22]          ; [CPU_] |911| 
    2779              $C$DW$218       .dwtag  DW_TAG_TI_branch
    2780                      .dwattr $C$DW$218, DW_AT_low_pc(0x00)
    2781                      .dwattr $C$DW$218, DW_AT_name("_CTRL_setGains")
    2782                      .dwattr $C$DW$218, DW_AT_TI_call
    2783              
    2784 00000427 7640!         LCR       #_CTRL_setGains       ; [CPU_] |911| 
         00000428 0000 
TMS320C2000 Assembler PC v16.9.6 Sun Jan 28 18:08:28 2018

Tools Copyright (c) 1996-2017 Texas Instruments Incorporated
C:\Users\Zulolo\AppData\Local\Temp\{7EDDBB07-3A94-4F89-8653-32F0EC9EC6F3} PAGE   56

    2785                      ; call occurs [#_CTRL_setGains] ; [] |911| 
    2786 00000429 FE96          SUBB      SP,#22                ; [CPU_U] 
    2787                      .dwcfi  cfa_offset, -8
    2788 0000042a 82BE          MOVL      XAR3,*--SP            ; [CPU_] 
    2789                      .dwcfi  cfa_offset, -6
    2790                      .dwcfi  restore_reg, 11
    2791 0000042b 86BE          MOVL      XAR2,*--SP            ; [CPU_] 
    2792                      .dwcfi  cfa_offset, -4
    2793                      .dwcfi  restore_reg, 9
    2794 0000042c 8BBE          MOVL      XAR1,*--SP            ; [CPU_] 
    2795                      .dwcfi  cfa_offset, -2
    2796                      .dwcfi  restore_reg, 7
    2797              $C$DW$219       .dwtag  DW_TAG_TI_branch
    2798                      .dwattr $C$DW$219, DW_AT_low_pc(0x00)
    2799                      .dwattr $C$DW$219, DW_AT_TI_return
    2800              
    2801 0000042d 0006          LRETR     ; [CPU_] 
    2802                      ; return occurs ; [] 
    2803                      .dwattr $C$DW$180, DW_AT_TI_end_file("../src/user.c")
    2804                      .dwattr $C$DW$180, DW_AT_TI_end_line(0x392)
    2805                      .dwattr $C$DW$180, DW_AT_TI_end_column(0x01)
    2806                      .dwendentry
    2807                      .dwendtag $C$DW$180
    2808              
    2809              ;***************************************************************
    2810              ;* FLOATING-POINT CONSTANTS                                    *
    2811              ;***************************************************************
    2812 00000000               .sect   ".econst"
    2813                      .align  2
    2814 00000000 0000  $C$FL1: .xldouble       $strtod("0x1p+30")
         00000001 0000 
         00000002 0000 
         00000003 41D0 
    2815                      .align  2
    2816 00000004 0000  $C$FL2: .xldouble       $strtod("0x1p+24")
         00000005 0000 
         00000006 0000 
         00000007 4170 
    2817              ;**************************************************************
    2818              ;* UNDEFINED EXTERNAL REFERENCES                              *
    2819              ;**************************************************************
    2820                      .global _CTRL_setGains
    2821                      .global _EST_setLs_q_pu
    2822                      .global _EST_setLs_qFmt
    2823                      .global _EST_setLs_d_pu
    2824                      .global _pow
    2825                      .global _log
    2826                      .global _EST_getLs_d_H
    2827                      .global _EST_getLs_d_pu
    2828                      .global _EST_getLs_q_pu
    2829                      .global _EST_getLs_q_H
    2830                      .global _ceil
    2831                      .global _EST_getLs_coarse_max_pu
    2832                      .global __IQ30toF
    2833                      .global _EST_getFlux_pu
TMS320C2000 Assembler PC v16.9.6 Sun Jan 28 18:08:28 2018

Tools Copyright (c) 1996-2017 Texas Instruments Incorporated
C:\Users\Zulolo\AppData\Local\Temp\{7EDDBB07-3A94-4F89-8653-32F0EC9EC6F3} PAGE   57

    2834                      .global _EST_getRs_Ohm
    2835                      .global FS$$MPY
    2836                      .global FS$$DIV
    2837                      .global I$$TOFS
    2838                      .global FD$$MPY
    2839                      .global FS$$TOFD
    2840                      .global FS$$TOI
    2841                      .global FD$$TOL
    2842                      .global FS$$NEG
    2843              
    2844              ;***************************************************************
    2845              ;* TYPE INFORMATION                                            *
    2846              ;***************************************************************
    2847              
    2848              $C$DW$T$25      .dwtag  DW_TAG_enumeration_type
    2849                      .dwattr $C$DW$T$25, DW_AT_byte_size(0x01)
    2850              $C$DW$220       .dwtag  DW_TAG_enumerator
    2851                      .dwattr $C$DW$220, DW_AT_name("CTRL_State_Error")
    2852                      .dwattr $C$DW$220, DW_AT_const_value(0x00)
    2853              
    2854              $C$DW$221       .dwtag  DW_TAG_enumerator
    2855                      .dwattr $C$DW$221, DW_AT_name("CTRL_State_Idle")
    2856                      .dwattr $C$DW$221, DW_AT_const_value(0x01)
    2857              
    2858              $C$DW$222       .dwtag  DW_TAG_enumerator
    2859                      .dwattr $C$DW$222, DW_AT_name("CTRL_State_OffLine")
    2860                      .dwattr $C$DW$222, DW_AT_const_value(0x02)
    2861              
    2862              $C$DW$223       .dwtag  DW_TAG_enumerator
    2863                      .dwattr $C$DW$223, DW_AT_name("CTRL_State_OnLine")
    2864                      .dwattr $C$DW$223, DW_AT_const_value(0x03)
    2865              
    2866              $C$DW$224       .dwtag  DW_TAG_enumerator
    2867                      .dwattr $C$DW$224, DW_AT_name("CTRL_numStates")
    2868                      .dwattr $C$DW$224, DW_AT_const_value(0x04)
    2869              
    2870                      .dwendtag $C$DW$T$25
    2871              
    2872              $C$DW$T$26      .dwtag  DW_TAG_typedef
    2873                      .dwattr $C$DW$T$26, DW_AT_name("CTRL_State_e")
    2874                      .dwattr $C$DW$T$26, DW_AT_type(*$C$DW$T$25)
    2875                      .dwattr $C$DW$T$26, DW_AT_language(DW_LANG_C)
    2876              
    2877              
    2878              $C$DW$T$27      .dwtag  DW_TAG_enumeration_type
    2879                      .dwattr $C$DW$T$27, DW_AT_byte_size(0x01)
    2880              $C$DW$225       .dwtag  DW_TAG_enumerator
    2881                      .dwattr $C$DW$225, DW_AT_name("CTRL_ErrorCode_NoError")
    2882                      .dwattr $C$DW$225, DW_AT_const_value(0x00)
    2883              
    2884              $C$DW$226       .dwtag  DW_TAG_enumerator
    2885                      .dwattr $C$DW$226, DW_AT_name("CTRL_ErrorCode_IdClip")
    2886                      .dwattr $C$DW$226, DW_AT_const_value(0x01)
    2887              
    2888              $C$DW$227       .dwtag  DW_TAG_enumerator
TMS320C2000 Assembler PC v16.9.6 Sun Jan 28 18:08:28 2018

Tools Copyright (c) 1996-2017 Texas Instruments Incorporated
C:\Users\Zulolo\AppData\Local\Temp\{7EDDBB07-3A94-4F89-8653-32F0EC9EC6F3} PAGE   58

    2889                      .dwattr $C$DW$227, DW_AT_name("CTRL_ErrorCode_EstError")
    2890                      .dwattr $C$DW$227, DW_AT_const_value(0x02)
    2891              
    2892              $C$DW$228       .dwtag  DW_TAG_enumerator
    2893                      .dwattr $C$DW$228, DW_AT_name("CTRL_numErrorCodes")
    2894                      .dwattr $C$DW$228, DW_AT_const_value(0x03)
    2895              
    2896                      .dwendtag $C$DW$T$27
    2897              
    2898              $C$DW$T$28      .dwtag  DW_TAG_typedef
    2899                      .dwattr $C$DW$T$28, DW_AT_name("CTRL_ErrorCode_e")
    2900                      .dwattr $C$DW$T$28, DW_AT_type(*$C$DW$T$27)
    2901                      .dwattr $C$DW$T$28, DW_AT_language(DW_LANG_C)
    2902              
    2903              
    2904              $C$DW$T$58      .dwtag  DW_TAG_enumeration_type
    2905                      .dwattr $C$DW$T$58, DW_AT_byte_size(0x01)
    2906              $C$DW$229       .dwtag  DW_TAG_enumerator
    2907                      .dwattr $C$DW$229, DW_AT_name("CTRL_TargetProc_2806x")
    2908                      .dwattr $C$DW$229, DW_AT_const_value(0x00)
    2909              
    2910              $C$DW$230       .dwtag  DW_TAG_enumerator
    2911                      .dwattr $C$DW$230, DW_AT_name("CTRL_TargetProc_2805x")
    2912                      .dwattr $C$DW$230, DW_AT_const_value(0x01)
    2913              
    2914              $C$DW$231       .dwtag  DW_TAG_enumerator
    2915                      .dwattr $C$DW$231, DW_AT_name("CTRL_TargetProc_2803x")
    2916                      .dwattr $C$DW$231, DW_AT_const_value(0x02)
    2917              
    2918              $C$DW$232       .dwtag  DW_TAG_enumerator
    2919                      .dwattr $C$DW$232, DW_AT_name("CTRL_TargetProc_2802x")
    2920                      .dwattr $C$DW$232, DW_AT_const_value(0x03)
    2921              
    2922              $C$DW$233       .dwtag  DW_TAG_enumerator
    2923                      .dwattr $C$DW$233, DW_AT_name("CTRL_TargetProc_Unknown")
    2924                      .dwattr $C$DW$233, DW_AT_const_value(0x04)
    2925              
    2926                      .dwendtag $C$DW$T$58
    2927              
    2928              $C$DW$T$59      .dwtag  DW_TAG_typedef
    2929                      .dwattr $C$DW$T$59, DW_AT_name("CTRL_TargetProc_e")
    2930                      .dwattr $C$DW$T$59, DW_AT_type(*$C$DW$T$58)
    2931                      .dwattr $C$DW$T$59, DW_AT_language(DW_LANG_C)
    2932              
    2933              
    2934              $C$DW$T$64      .dwtag  DW_TAG_enumeration_type
    2935                      .dwattr $C$DW$T$64, DW_AT_byte_size(0x01)
    2936              $C$DW$234       .dwtag  DW_TAG_enumerator
    2937                      .dwattr $C$DW$234, DW_AT_name("MOTOR_Type_Induction")
    2938                      .dwattr $C$DW$234, DW_AT_const_value(0x00)
    2939              
    2940              $C$DW$235       .dwtag  DW_TAG_enumerator
    2941                      .dwattr $C$DW$235, DW_AT_name("MOTOR_Type_Pm")
    2942                      .dwattr $C$DW$235, DW_AT_const_value(0x01)
    2943              
TMS320C2000 Assembler PC v16.9.6 Sun Jan 28 18:08:28 2018

Tools Copyright (c) 1996-2017 Texas Instruments Incorporated
C:\Users\Zulolo\AppData\Local\Temp\{7EDDBB07-3A94-4F89-8653-32F0EC9EC6F3} PAGE   59

    2944                      .dwendtag $C$DW$T$64
    2945              
    2946              $C$DW$T$65      .dwtag  DW_TAG_typedef
    2947                      .dwattr $C$DW$T$65, DW_AT_name("MOTOR_Type_e")
    2948                      .dwattr $C$DW$T$65, DW_AT_type(*$C$DW$T$64)
    2949                      .dwattr $C$DW$T$65, DW_AT_language(DW_LANG_C)
    2950              
    2951              
    2952              $C$DW$T$74      .dwtag  DW_TAG_enumeration_type
    2953                      .dwattr $C$DW$T$74, DW_AT_byte_size(0x01)
    2954              $C$DW$236       .dwtag  DW_TAG_enumerator
    2955                      .dwattr $C$DW$236, DW_AT_name("USER_ErrorCode_NoError")
    2956                      .dwattr $C$DW$236, DW_AT_const_value(0x00)
    2957              
    2958              $C$DW$237       .dwtag  DW_TAG_enumerator
    2959                      .dwattr $C$DW$237, DW_AT_name("USER_ErrorCode_iqFullScaleCurrent_A_High")
    2960                      .dwattr $C$DW$237, DW_AT_const_value(0x01)
    2961              
    2962              $C$DW$238       .dwtag  DW_TAG_enumerator
    2963                      .dwattr $C$DW$238, DW_AT_name("USER_ErrorCode_iqFullScaleCurrent_A_Low")
    2964                      .dwattr $C$DW$238, DW_AT_const_value(0x02)
    2965              
    2966              $C$DW$239       .dwtag  DW_TAG_enumerator
    2967                      .dwattr $C$DW$239, DW_AT_name("USER_ErrorCode_iqFullScaleVoltage_V_High")
    2968                      .dwattr $C$DW$239, DW_AT_const_value(0x03)
    2969              
    2970              $C$DW$240       .dwtag  DW_TAG_enumerator
    2971                      .dwattr $C$DW$240, DW_AT_name("USER_ErrorCode_iqFullScaleVoltage_V_Low")
    2972                      .dwattr $C$DW$240, DW_AT_const_value(0x04)
    2973              
    2974              $C$DW$241       .dwtag  DW_TAG_enumerator
    2975                      .dwattr $C$DW$241, DW_AT_name("USER_ErrorCode_iqFullScaleFreq_Hz_High")
    2976                      .dwattr $C$DW$241, DW_AT_const_value(0x05)
    2977              
    2978              $C$DW$242       .dwtag  DW_TAG_enumerator
    2979                      .dwattr $C$DW$242, DW_AT_name("USER_ErrorCode_iqFullScaleFreq_Hz_Low")
    2980                      .dwattr $C$DW$242, DW_AT_const_value(0x06)
    2981              
    2982              $C$DW$243       .dwtag  DW_TAG_enumerator
    2983                      .dwattr $C$DW$243, DW_AT_name("USER_ErrorCode_numPwmTicksPerIsrTick_High")
    2984                      .dwattr $C$DW$243, DW_AT_const_value(0x07)
    2985              
    2986              $C$DW$244       .dwtag  DW_TAG_enumerator
    2987                      .dwattr $C$DW$244, DW_AT_name("USER_ErrorCode_numPwmTicksPerIsrTick_Low")
    2988                      .dwattr $C$DW$244, DW_AT_const_value(0x08)
    2989              
    2990              $C$DW$245       .dwtag  DW_TAG_enumerator
    2991                      .dwattr $C$DW$245, DW_AT_name("USER_ErrorCode_numIsrTicksPerCtrlTick_High")
    2992                      .dwattr $C$DW$245, DW_AT_const_value(0x09)
    2993              
    2994              $C$DW$246       .dwtag  DW_TAG_enumerator
    2995                      .dwattr $C$DW$246, DW_AT_name("USER_ErrorCode_numIsrTicksPerCtrlTick_Low")
    2996                      .dwattr $C$DW$246, DW_AT_const_value(0x0a)
    2997              
    2998              $C$DW$247       .dwtag  DW_TAG_enumerator
TMS320C2000 Assembler PC v16.9.6 Sun Jan 28 18:08:28 2018

Tools Copyright (c) 1996-2017 Texas Instruments Incorporated
C:\Users\Zulolo\AppData\Local\Temp\{7EDDBB07-3A94-4F89-8653-32F0EC9EC6F3} PAGE   60

    2999                      .dwattr $C$DW$247, DW_AT_name("USER_ErrorCode_numCtrlTicksPerCurrentTick_High")
    3000                      .dwattr $C$DW$247, DW_AT_const_value(0x0b)
    3001              
    3002              $C$DW$248       .dwtag  DW_TAG_enumerator
    3003                      .dwattr $C$DW$248, DW_AT_name("USER_ErrorCode_numCtrlTicksPerCurrentTick_Low")
    3004                      .dwattr $C$DW$248, DW_AT_const_value(0x0c)
    3005              
    3006              $C$DW$249       .dwtag  DW_TAG_enumerator
    3007                      .dwattr $C$DW$249, DW_AT_name("USER_ErrorCode_numCtrlTicksPerEstTick_High")
    3008                      .dwattr $C$DW$249, DW_AT_const_value(0x0d)
    3009              
    3010              $C$DW$250       .dwtag  DW_TAG_enumerator
    3011                      .dwattr $C$DW$250, DW_AT_name("USER_ErrorCode_numCtrlTicksPerEstTick_Low")
    3012                      .dwattr $C$DW$250, DW_AT_const_value(0x0e)
    3013              
    3014              $C$DW$251       .dwtag  DW_TAG_enumerator
    3015                      .dwattr $C$DW$251, DW_AT_name("USER_ErrorCode_numCtrlTicksPerSpeedTick_High")
    3016                      .dwattr $C$DW$251, DW_AT_const_value(0x0f)
    3017              
    3018              $C$DW$252       .dwtag  DW_TAG_enumerator
    3019                      .dwattr $C$DW$252, DW_AT_name("USER_ErrorCode_numCtrlTicksPerSpeedTick_Low")
    3020                      .dwattr $C$DW$252, DW_AT_const_value(0x10)
    3021              
    3022              $C$DW$253       .dwtag  DW_TAG_enumerator
    3023                      .dwattr $C$DW$253, DW_AT_name("USER_ErrorCode_numCtrlTicksPerTrajTick_High")
    3024                      .dwattr $C$DW$253, DW_AT_const_value(0x11)
    3025              
    3026              $C$DW$254       .dwtag  DW_TAG_enumerator
    3027                      .dwattr $C$DW$254, DW_AT_name("USER_ErrorCode_numCtrlTicksPerTrajTick_Low")
    3028                      .dwattr $C$DW$254, DW_AT_const_value(0x12)
    3029              
    3030              $C$DW$255       .dwtag  DW_TAG_enumerator
    3031                      .dwattr $C$DW$255, DW_AT_name("USER_ErrorCode_numCurrentSensors_High")
    3032                      .dwattr $C$DW$255, DW_AT_const_value(0x13)
    3033              
    3034              $C$DW$256       .dwtag  DW_TAG_enumerator
    3035                      .dwattr $C$DW$256, DW_AT_name("USER_ErrorCode_numCurrentSensors_Low")
    3036                      .dwattr $C$DW$256, DW_AT_const_value(0x14)
    3037              
    3038              $C$DW$257       .dwtag  DW_TAG_enumerator
    3039                      .dwattr $C$DW$257, DW_AT_name("USER_ErrorCode_numVoltageSensors_High")
    3040                      .dwattr $C$DW$257, DW_AT_const_value(0x15)
    3041              
    3042              $C$DW$258       .dwtag  DW_TAG_enumerator
    3043                      .dwattr $C$DW$258, DW_AT_name("USER_ErrorCode_numVoltageSensors_Low")
    3044                      .dwattr $C$DW$258, DW_AT_const_value(0x16)
    3045              
    3046              $C$DW$259       .dwtag  DW_TAG_enumerator
    3047                      .dwattr $C$DW$259, DW_AT_name("USER_ErrorCode_offsetPole_rps_High")
    3048                      .dwattr $C$DW$259, DW_AT_const_value(0x17)
    3049              
    3050              $C$DW$260       .dwtag  DW_TAG_enumerator
    3051                      .dwattr $C$DW$260, DW_AT_name("USER_ErrorCode_offsetPole_rps_Low")
    3052                      .dwattr $C$DW$260, DW_AT_const_value(0x18)
    3053              
TMS320C2000 Assembler PC v16.9.6 Sun Jan 28 18:08:28 2018

Tools Copyright (c) 1996-2017 Texas Instruments Incorporated
C:\Users\Zulolo\AppData\Local\Temp\{7EDDBB07-3A94-4F89-8653-32F0EC9EC6F3} PAGE   61

    3054              $C$DW$261       .dwtag  DW_TAG_enumerator
    3055                      .dwattr $C$DW$261, DW_AT_name("USER_ErrorCode_fluxPole_rps_High")
    3056                      .dwattr $C$DW$261, DW_AT_const_value(0x19)
    3057              
    3058              $C$DW$262       .dwtag  DW_TAG_enumerator
    3059                      .dwattr $C$DW$262, DW_AT_name("USER_ErrorCode_fluxPole_rps_Low")
    3060                      .dwattr $C$DW$262, DW_AT_const_value(0x1a)
    3061              
    3062              $C$DW$263       .dwtag  DW_TAG_enumerator
    3063                      .dwattr $C$DW$263, DW_AT_name("USER_ErrorCode_zeroSpeedLimit_High")
    3064                      .dwattr $C$DW$263, DW_AT_const_value(0x1b)
    3065              
    3066              $C$DW$264       .dwtag  DW_TAG_enumerator
    3067                      .dwattr $C$DW$264, DW_AT_name("USER_ErrorCode_zeroSpeedLimit_Low")
    3068                      .dwattr $C$DW$264, DW_AT_const_value(0x1c)
    3069              
    3070              $C$DW$265       .dwtag  DW_TAG_enumerator
    3071                      .dwattr $C$DW$265, DW_AT_name("USER_ErrorCode_forceAngleFreq_Hz_High")
    3072                      .dwattr $C$DW$265, DW_AT_const_value(0x1d)
    3073              
    3074              $C$DW$266       .dwtag  DW_TAG_enumerator
    3075                      .dwattr $C$DW$266, DW_AT_name("USER_ErrorCode_forceAngleFreq_Hz_Low")
    3076                      .dwattr $C$DW$266, DW_AT_const_value(0x1e)
    3077              
    3078              $C$DW$267       .dwtag  DW_TAG_enumerator
    3079                      .dwattr $C$DW$267, DW_AT_name("USER_ErrorCode_maxAccel_Hzps_High")
    3080                      .dwattr $C$DW$267, DW_AT_const_value(0x1f)
    3081              
    3082              $C$DW$268       .dwtag  DW_TAG_enumerator
    3083                      .dwattr $C$DW$268, DW_AT_name("USER_ErrorCode_maxAccel_Hzps_Low")
    3084                      .dwattr $C$DW$268, DW_AT_const_value(0x20)
    3085              
    3086              $C$DW$269       .dwtag  DW_TAG_enumerator
    3087                      .dwattr $C$DW$269, DW_AT_name("USER_ErrorCode_maxAccel_est_Hzps_High")
    3088                      .dwattr $C$DW$269, DW_AT_const_value(0x21)
    3089              
    3090              $C$DW$270       .dwtag  DW_TAG_enumerator
    3091                      .dwattr $C$DW$270, DW_AT_name("USER_ErrorCode_maxAccel_est_Hzps_Low")
    3092                      .dwattr $C$DW$270, DW_AT_const_value(0x22)
    3093              
    3094              $C$DW$271       .dwtag  DW_TAG_enumerator
    3095                      .dwattr $C$DW$271, DW_AT_name("USER_ErrorCode_directionPole_rps_High")
    3096                      .dwattr $C$DW$271, DW_AT_const_value(0x23)
    3097              
    3098              $C$DW$272       .dwtag  DW_TAG_enumerator
    3099                      .dwattr $C$DW$272, DW_AT_name("USER_ErrorCode_directionPole_rps_Low")
    3100                      .dwattr $C$DW$272, DW_AT_const_value(0x24)
    3101              
    3102              $C$DW$273       .dwtag  DW_TAG_enumerator
    3103                      .dwattr $C$DW$273, DW_AT_name("USER_ErrorCode_speedPole_rps_High")
    3104                      .dwattr $C$DW$273, DW_AT_const_value(0x25)
    3105              
    3106              $C$DW$274       .dwtag  DW_TAG_enumerator
    3107                      .dwattr $C$DW$274, DW_AT_name("USER_ErrorCode_speedPole_rps_Low")
    3108                      .dwattr $C$DW$274, DW_AT_const_value(0x26)
TMS320C2000 Assembler PC v16.9.6 Sun Jan 28 18:08:28 2018

Tools Copyright (c) 1996-2017 Texas Instruments Incorporated
C:\Users\Zulolo\AppData\Local\Temp\{7EDDBB07-3A94-4F89-8653-32F0EC9EC6F3} PAGE   62

    3109              
    3110              $C$DW$275       .dwtag  DW_TAG_enumerator
    3111                      .dwattr $C$DW$275, DW_AT_name("USER_ErrorCode_dcBusPole_rps_High")
    3112                      .dwattr $C$DW$275, DW_AT_const_value(0x27)
    3113              
    3114              $C$DW$276       .dwtag  DW_TAG_enumerator
    3115                      .dwattr $C$DW$276, DW_AT_name("USER_ErrorCode_dcBusPole_rps_Low")
    3116                      .dwattr $C$DW$276, DW_AT_const_value(0x28)
    3117              
    3118              $C$DW$277       .dwtag  DW_TAG_enumerator
    3119                      .dwattr $C$DW$277, DW_AT_name("USER_ErrorCode_fluxFraction_High")
    3120                      .dwattr $C$DW$277, DW_AT_const_value(0x29)
    3121              
    3122              $C$DW$278       .dwtag  DW_TAG_enumerator
    3123                      .dwattr $C$DW$278, DW_AT_name("USER_ErrorCode_fluxFraction_Low")
    3124                      .dwattr $C$DW$278, DW_AT_const_value(0x2a)
    3125              
    3126              $C$DW$279       .dwtag  DW_TAG_enumerator
    3127                      .dwattr $C$DW$279, DW_AT_name("USER_ErrorCode_indEst_speedMaxFraction_High")
    3128                      .dwattr $C$DW$279, DW_AT_const_value(0x2b)
    3129              
    3130              $C$DW$280       .dwtag  DW_TAG_enumerator
    3131                      .dwattr $C$DW$280, DW_AT_name("USER_ErrorCode_indEst_speedMaxFraction_Low")
    3132                      .dwattr $C$DW$280, DW_AT_const_value(0x2c)
    3133              
    3134              $C$DW$281       .dwtag  DW_TAG_enumerator
    3135                      .dwattr $C$DW$281, DW_AT_name("USER_ErrorCode_powerWarpGain_High")
    3136                      .dwattr $C$DW$281, DW_AT_const_value(0x2d)
    3137              
    3138              $C$DW$282       .dwtag  DW_TAG_enumerator
    3139                      .dwattr $C$DW$282, DW_AT_name("USER_ErrorCode_powerWarpGain_Low")
    3140                      .dwattr $C$DW$282, DW_AT_const_value(0x2e)
    3141              
    3142              $C$DW$283       .dwtag  DW_TAG_enumerator
    3143                      .dwattr $C$DW$283, DW_AT_name("USER_ErrorCode_systemFreq_MHz_High")
    3144                      .dwattr $C$DW$283, DW_AT_const_value(0x2f)
    3145              
    3146              $C$DW$284       .dwtag  DW_TAG_enumerator
    3147                      .dwattr $C$DW$284, DW_AT_name("USER_ErrorCode_systemFreq_MHz_Low")
    3148                      .dwattr $C$DW$284, DW_AT_const_value(0x30)
    3149              
    3150              $C$DW$285       .dwtag  DW_TAG_enumerator
    3151                      .dwattr $C$DW$285, DW_AT_name("USER_ErrorCode_pwmFreq_kHz_High")
    3152                      .dwattr $C$DW$285, DW_AT_const_value(0x31)
    3153              
    3154              $C$DW$286       .dwtag  DW_TAG_enumerator
    3155                      .dwattr $C$DW$286, DW_AT_name("USER_ErrorCode_pwmFreq_kHz_Low")
    3156                      .dwattr $C$DW$286, DW_AT_const_value(0x32)
    3157              
    3158              $C$DW$287       .dwtag  DW_TAG_enumerator
    3159                      .dwattr $C$DW$287, DW_AT_name("USER_ErrorCode_voltage_sf_High")
    3160                      .dwattr $C$DW$287, DW_AT_const_value(0x33)
    3161              
    3162              $C$DW$288       .dwtag  DW_TAG_enumerator
    3163                      .dwattr $C$DW$288, DW_AT_name("USER_ErrorCode_voltage_sf_Low")
TMS320C2000 Assembler PC v16.9.6 Sun Jan 28 18:08:28 2018

Tools Copyright (c) 1996-2017 Texas Instruments Incorporated
C:\Users\Zulolo\AppData\Local\Temp\{7EDDBB07-3A94-4F89-8653-32F0EC9EC6F3} PAGE   63

    3164                      .dwattr $C$DW$288, DW_AT_const_value(0x34)
    3165              
    3166              $C$DW$289       .dwtag  DW_TAG_enumerator
    3167                      .dwattr $C$DW$289, DW_AT_name("USER_ErrorCode_current_sf_High")
    3168                      .dwattr $C$DW$289, DW_AT_const_value(0x35)
    3169              
    3170              $C$DW$290       .dwtag  DW_TAG_enumerator
    3171                      .dwattr $C$DW$290, DW_AT_name("USER_ErrorCode_current_sf_Low")
    3172                      .dwattr $C$DW$290, DW_AT_const_value(0x36)
    3173              
    3174              $C$DW$291       .dwtag  DW_TAG_enumerator
    3175                      .dwattr $C$DW$291, DW_AT_name("USER_ErrorCode_voltageFilterPole_Hz_High")
    3176                      .dwattr $C$DW$291, DW_AT_const_value(0x37)
    3177              
    3178              $C$DW$292       .dwtag  DW_TAG_enumerator
    3179                      .dwattr $C$DW$292, DW_AT_name("USER_ErrorCode_voltageFilterPole_Hz_Low")
    3180                      .dwattr $C$DW$292, DW_AT_const_value(0x38)
    3181              
    3182              $C$DW$293       .dwtag  DW_TAG_enumerator
    3183                      .dwattr $C$DW$293, DW_AT_name("USER_ErrorCode_maxVsMag_pu_High")
    3184                      .dwattr $C$DW$293, DW_AT_const_value(0x39)
    3185              
    3186              $C$DW$294       .dwtag  DW_TAG_enumerator
    3187                      .dwattr $C$DW$294, DW_AT_name("USER_ErrorCode_maxVsMag_pu_Low")
    3188                      .dwattr $C$DW$294, DW_AT_const_value(0x3a)
    3189              
    3190              $C$DW$295       .dwtag  DW_TAG_enumerator
    3191                      .dwattr $C$DW$295, DW_AT_name("USER_ErrorCode_estKappa_High")
    3192                      .dwattr $C$DW$295, DW_AT_const_value(0x3b)
    3193              
    3194              $C$DW$296       .dwtag  DW_TAG_enumerator
    3195                      .dwattr $C$DW$296, DW_AT_name("USER_ErrorCode_estKappa_Low")
    3196                      .dwattr $C$DW$296, DW_AT_const_value(0x3c)
    3197              
    3198              $C$DW$297       .dwtag  DW_TAG_enumerator
    3199                      .dwattr $C$DW$297, DW_AT_name("USER_ErrorCode_motor_type_Unknown")
    3200                      .dwattr $C$DW$297, DW_AT_const_value(0x3d)
    3201              
    3202              $C$DW$298       .dwtag  DW_TAG_enumerator
    3203                      .dwattr $C$DW$298, DW_AT_name("USER_ErrorCode_motor_numPolePairs_High")
    3204                      .dwattr $C$DW$298, DW_AT_const_value(0x3e)
    3205              
    3206              $C$DW$299       .dwtag  DW_TAG_enumerator
    3207                      .dwattr $C$DW$299, DW_AT_name("USER_ErrorCode_motor_numPolePairs_Low")
    3208                      .dwattr $C$DW$299, DW_AT_const_value(0x3f)
    3209              
    3210              $C$DW$300       .dwtag  DW_TAG_enumerator
    3211                      .dwattr $C$DW$300, DW_AT_name("USER_ErrorCode_motor_ratedFlux_High")
    3212                      .dwattr $C$DW$300, DW_AT_const_value(0x40)
    3213              
    3214              $C$DW$301       .dwtag  DW_TAG_enumerator
    3215                      .dwattr $C$DW$301, DW_AT_name("USER_ErrorCode_motor_ratedFlux_Low")
    3216                      .dwattr $C$DW$301, DW_AT_const_value(0x41)
    3217              
    3218              $C$DW$302       .dwtag  DW_TAG_enumerator
TMS320C2000 Assembler PC v16.9.6 Sun Jan 28 18:08:28 2018

Tools Copyright (c) 1996-2017 Texas Instruments Incorporated
C:\Users\Zulolo\AppData\Local\Temp\{7EDDBB07-3A94-4F89-8653-32F0EC9EC6F3} PAGE   64

    3219                      .dwattr $C$DW$302, DW_AT_name("USER_ErrorCode_motor_Rr_High")
    3220                      .dwattr $C$DW$302, DW_AT_const_value(0x42)
    3221              
    3222              $C$DW$303       .dwtag  DW_TAG_enumerator
    3223                      .dwattr $C$DW$303, DW_AT_name("USER_ErrorCode_motor_Rr_Low")
    3224                      .dwattr $C$DW$303, DW_AT_const_value(0x43)
    3225              
    3226              $C$DW$304       .dwtag  DW_TAG_enumerator
    3227                      .dwattr $C$DW$304, DW_AT_name("USER_ErrorCode_motor_Rs_High")
    3228                      .dwattr $C$DW$304, DW_AT_const_value(0x44)
    3229              
    3230              $C$DW$305       .dwtag  DW_TAG_enumerator
    3231                      .dwattr $C$DW$305, DW_AT_name("USER_ErrorCode_motor_Rs_Low")
    3232                      .dwattr $C$DW$305, DW_AT_const_value(0x45)
    3233              
    3234              $C$DW$306       .dwtag  DW_TAG_enumerator
    3235                      .dwattr $C$DW$306, DW_AT_name("USER_ErrorCode_motor_Ls_d_High")
    3236                      .dwattr $C$DW$306, DW_AT_const_value(0x46)
    3237              
    3238              $C$DW$307       .dwtag  DW_TAG_enumerator
    3239                      .dwattr $C$DW$307, DW_AT_name("USER_ErrorCode_motor_Ls_d_Low")
    3240                      .dwattr $C$DW$307, DW_AT_const_value(0x47)
    3241              
    3242              $C$DW$308       .dwtag  DW_TAG_enumerator
    3243                      .dwattr $C$DW$308, DW_AT_name("USER_ErrorCode_motor_Ls_q_High")
    3244                      .dwattr $C$DW$308, DW_AT_const_value(0x48)
    3245              
    3246              $C$DW$309       .dwtag  DW_TAG_enumerator
    3247                      .dwattr $C$DW$309, DW_AT_name("USER_ErrorCode_motor_Ls_q_Low")
    3248                      .dwattr $C$DW$309, DW_AT_const_value(0x49)
    3249              
    3250              $C$DW$310       .dwtag  DW_TAG_enumerator
    3251                      .dwattr $C$DW$310, DW_AT_name("USER_ErrorCode_maxCurrent_High")
    3252                      .dwattr $C$DW$310, DW_AT_const_value(0x4a)
    3253              
    3254              $C$DW$311       .dwtag  DW_TAG_enumerator
    3255                      .dwattr $C$DW$311, DW_AT_name("USER_ErrorCode_maxCurrent_Low")
    3256                      .dwattr $C$DW$311, DW_AT_const_value(0x4b)
    3257              
    3258              $C$DW$312       .dwtag  DW_TAG_enumerator
    3259                      .dwattr $C$DW$312, DW_AT_name("USER_ErrorCode_maxCurrent_resEst_High")
    3260                      .dwattr $C$DW$312, DW_AT_const_value(0x4c)
    3261              
    3262              $C$DW$313       .dwtag  DW_TAG_enumerator
    3263                      .dwattr $C$DW$313, DW_AT_name("USER_ErrorCode_maxCurrent_resEst_Low")
    3264                      .dwattr $C$DW$313, DW_AT_const_value(0x4d)
    3265              
    3266              $C$DW$314       .dwtag  DW_TAG_enumerator
    3267                      .dwattr $C$DW$314, DW_AT_name("USER_ErrorCode_maxCurrent_indEst_High")
    3268                      .dwattr $C$DW$314, DW_AT_const_value(0x4e)
    3269              
    3270              $C$DW$315       .dwtag  DW_TAG_enumerator
    3271                      .dwattr $C$DW$315, DW_AT_name("USER_ErrorCode_maxCurrent_indEst_Low")
    3272                      .dwattr $C$DW$315, DW_AT_const_value(0x4f)
    3273              
TMS320C2000 Assembler PC v16.9.6 Sun Jan 28 18:08:28 2018

Tools Copyright (c) 1996-2017 Texas Instruments Incorporated
C:\Users\Zulolo\AppData\Local\Temp\{7EDDBB07-3A94-4F89-8653-32F0EC9EC6F3} PAGE   65

    3274              $C$DW$316       .dwtag  DW_TAG_enumerator
    3275                      .dwattr $C$DW$316, DW_AT_name("USER_ErrorCode_maxCurrentSlope_High")
    3276                      .dwattr $C$DW$316, DW_AT_const_value(0x50)
    3277              
    3278              $C$DW$317       .dwtag  DW_TAG_enumerator
    3279                      .dwattr $C$DW$317, DW_AT_name("USER_ErrorCode_maxCurrentSlope_Low")
    3280                      .dwattr $C$DW$317, DW_AT_const_value(0x51)
    3281              
    3282              $C$DW$318       .dwtag  DW_TAG_enumerator
    3283                      .dwattr $C$DW$318, DW_AT_name("USER_ErrorCode_maxCurrentSlope_powerWarp_High")
    3284                      .dwattr $C$DW$318, DW_AT_const_value(0x52)
    3285              
    3286              $C$DW$319       .dwtag  DW_TAG_enumerator
    3287                      .dwattr $C$DW$319, DW_AT_name("USER_ErrorCode_maxCurrentSlope_powerWarp_Low")
    3288                      .dwattr $C$DW$319, DW_AT_const_value(0x53)
    3289              
    3290              $C$DW$320       .dwtag  DW_TAG_enumerator
    3291                      .dwattr $C$DW$320, DW_AT_name("USER_ErrorCode_IdRated_High")
    3292                      .dwattr $C$DW$320, DW_AT_const_value(0x54)
    3293              
    3294              $C$DW$321       .dwtag  DW_TAG_enumerator
    3295                      .dwattr $C$DW$321, DW_AT_name("USER_ErrorCode_IdRated_Low")
    3296                      .dwattr $C$DW$321, DW_AT_const_value(0x55)
    3297              
    3298              $C$DW$322       .dwtag  DW_TAG_enumerator
    3299                      .dwattr $C$DW$322, DW_AT_name("USER_ErrorCode_IdRatedFraction_indEst_High")
    3300                      .dwattr $C$DW$322, DW_AT_const_value(0x56)
    3301              
    3302              $C$DW$323       .dwtag  DW_TAG_enumerator
    3303                      .dwattr $C$DW$323, DW_AT_name("USER_ErrorCode_IdRatedFraction_indEst_Low")
    3304                      .dwattr $C$DW$323, DW_AT_const_value(0x57)
    3305              
    3306              $C$DW$324       .dwtag  DW_TAG_enumerator
    3307                      .dwattr $C$DW$324, DW_AT_name("USER_ErrorCode_IdRatedFraction_ratedFlux_High")
    3308                      .dwattr $C$DW$324, DW_AT_const_value(0x58)
    3309              
    3310              $C$DW$325       .dwtag  DW_TAG_enumerator
    3311                      .dwattr $C$DW$325, DW_AT_name("USER_ErrorCode_IdRatedFraction_ratedFlux_Low")
    3312                      .dwattr $C$DW$325, DW_AT_const_value(0x59)
    3313              
    3314              $C$DW$326       .dwtag  DW_TAG_enumerator
    3315                      .dwattr $C$DW$326, DW_AT_name("USER_ErrorCode_IdRated_delta_High")
    3316                      .dwattr $C$DW$326, DW_AT_const_value(0x5a)
    3317              
    3318              $C$DW$327       .dwtag  DW_TAG_enumerator
    3319                      .dwattr $C$DW$327, DW_AT_name("USER_ErrorCode_IdRated_delta_Low")
    3320                      .dwattr $C$DW$327, DW_AT_const_value(0x5b)
    3321              
    3322              $C$DW$328       .dwtag  DW_TAG_enumerator
    3323                      .dwattr $C$DW$328, DW_AT_name("USER_ErrorCode_fluxEstFreq_Hz_High")
    3324                      .dwattr $C$DW$328, DW_AT_const_value(0x5c)
    3325              
    3326              $C$DW$329       .dwtag  DW_TAG_enumerator
    3327                      .dwattr $C$DW$329, DW_AT_name("USER_ErrorCode_fluxEstFreq_Hz_Low")
    3328                      .dwattr $C$DW$329, DW_AT_const_value(0x5d)
TMS320C2000 Assembler PC v16.9.6 Sun Jan 28 18:08:28 2018

Tools Copyright (c) 1996-2017 Texas Instruments Incorporated
C:\Users\Zulolo\AppData\Local\Temp\{7EDDBB07-3A94-4F89-8653-32F0EC9EC6F3} PAGE   66

    3329              
    3330              $C$DW$330       .dwtag  DW_TAG_enumerator
    3331                      .dwattr $C$DW$330, DW_AT_name("USER_ErrorCode_ctrlFreq_Hz_High")
    3332                      .dwattr $C$DW$330, DW_AT_const_value(0x5e)
    3333              
    3334              $C$DW$331       .dwtag  DW_TAG_enumerator
    3335                      .dwattr $C$DW$331, DW_AT_name("USER_ErrorCode_ctrlFreq_Hz_Low")
    3336                      .dwattr $C$DW$331, DW_AT_const_value(0x5f)
    3337              
    3338              $C$DW$332       .dwtag  DW_TAG_enumerator
    3339                      .dwattr $C$DW$332, DW_AT_name("USER_ErrorCode_estFreq_Hz_High")
    3340                      .dwattr $C$DW$332, DW_AT_const_value(0x60)
    3341              
    3342              $C$DW$333       .dwtag  DW_TAG_enumerator
    3343                      .dwattr $C$DW$333, DW_AT_name("USER_ErrorCode_estFreq_Hz_Low")
    3344                      .dwattr $C$DW$333, DW_AT_const_value(0x61)
    3345              
    3346              $C$DW$334       .dwtag  DW_TAG_enumerator
    3347                      .dwattr $C$DW$334, DW_AT_name("USER_ErrorCode_RoverL_estFreq_Hz_High")
    3348                      .dwattr $C$DW$334, DW_AT_const_value(0x62)
    3349              
    3350              $C$DW$335       .dwtag  DW_TAG_enumerator
    3351                      .dwattr $C$DW$335, DW_AT_name("USER_ErrorCode_RoverL_estFreq_Hz_Low")
    3352                      .dwattr $C$DW$335, DW_AT_const_value(0x63)
    3353              
    3354              $C$DW$336       .dwtag  DW_TAG_enumerator
    3355                      .dwattr $C$DW$336, DW_AT_name("USER_ErrorCode_trajFreq_Hz_High")
    3356                      .dwattr $C$DW$336, DW_AT_const_value(0x64)
    3357              
    3358              $C$DW$337       .dwtag  DW_TAG_enumerator
    3359                      .dwattr $C$DW$337, DW_AT_name("USER_ErrorCode_trajFreq_Hz_Low")
    3360                      .dwattr $C$DW$337, DW_AT_const_value(0x65)
    3361              
    3362              $C$DW$338       .dwtag  DW_TAG_enumerator
    3363                      .dwattr $C$DW$338, DW_AT_name("USER_ErrorCode_ctrlPeriod_sec_High")
    3364                      .dwattr $C$DW$338, DW_AT_const_value(0x66)
    3365              
    3366              $C$DW$339       .dwtag  DW_TAG_enumerator
    3367                      .dwattr $C$DW$339, DW_AT_name("USER_ErrorCode_ctrlPeriod_sec_Low")
    3368                      .dwattr $C$DW$339, DW_AT_const_value(0x67)
    3369              
    3370              $C$DW$340       .dwtag  DW_TAG_enumerator
    3371                      .dwattr $C$DW$340, DW_AT_name("USER_ErrorCode_maxNegativeIdCurrent_a_High")
    3372                      .dwattr $C$DW$340, DW_AT_const_value(0x68)
    3373              
    3374              $C$DW$341       .dwtag  DW_TAG_enumerator
    3375                      .dwattr $C$DW$341, DW_AT_name("USER_ErrorCode_maxNegativeIdCurrent_a_Low")
    3376                      .dwattr $C$DW$341, DW_AT_const_value(0x69)
    3377              
    3378              $C$DW$342       .dwtag  DW_TAG_enumerator
    3379                      .dwattr $C$DW$342, DW_AT_name("USER_numErrorCodes")
    3380                      .dwattr $C$DW$342, DW_AT_const_value(0x6a)
    3381              
    3382                      .dwendtag $C$DW$T$74
    3383              
